; ModuleID = 'thread_test.bc'
source_filename = "thread_test.cpp"
target datalayout = "e-m:w-p270:32:32-p271:32:32-p272:64:64-i64:64-f80:128-n8:16:32:64-S128"
target triple = "x86_64-pc-windows-msvc19.28.29336"

%"class.std::basic_string" = type { %"class.std::_Compressed_pair" }
%"class.std::_Compressed_pair" = type { %"class.std::_String_val" }
%"class.std::_String_val" = type { %"union.std::_String_val<std::_Simple_types<char>>::_Bxty", i64, i64 }
%"union.std::_String_val<std::_Simple_types<char>>::_Bxty" = type { i8*, [8 x i8] }
%"class.std::basic_ostream" = type { i32*, [4 x i8], i32, %"class.std::basic_ios" }
%"class.std::basic_ios" = type { %"class.std::ios_base", %"class.std::basic_streambuf"*, %"class.std::basic_ostream"*, i8 }
%"class.std::ios_base" = type { i32 (...)**, i64, i32, i32, i32, i64, i64, %"struct.std::ios_base::_Iosarray"*, %"struct.std::ios_base::_Fnarray"*, %"class.std::locale"* }
%"struct.std::ios_base::_Iosarray" = type { %"struct.std::ios_base::_Iosarray"*, i32, i32, i8* }
%"struct.std::ios_base::_Fnarray" = type { %"struct.std::ios_base::_Fnarray"*, i32, void (i32, %"class.std::ios_base"*, i32)* }
%"class.std::locale" = type { [8 x i8], %"class.std::locale::_Locimp"* }
%"class.std::locale::_Locimp" = type { %"class.std::locale::facet", %"class.std::locale::facet"**, i64, i32, i8, %"class.std::_Yarn" }
%"class.std::locale::facet" = type { %"class.std::_Facet_base", i32 }
%"class.std::_Facet_base" = type { i32 (...)** }
%"class.std::_Yarn" = type { i8*, i8 }
%"class.std::basic_streambuf" = type { i32 (...)**, i8*, i8*, i8**, i8**, i8*, i8*, i8**, i8**, i32, i32, i32*, i32*, %"class.std::locale"* }
%rtti.TypeDescriptor30 = type { i8**, i8*, [31 x i8] }
%eh.CatchableType = type { i32, i32, i32, i32, i32, i32, i32 }
%rtti.TypeDescriptor19 = type { i8**, i8*, [20 x i8] }
%eh.CatchableTypeArray.3 = type { i32, [3 x i32] }
%eh.ThrowInfo = type { i32, i32, i32, i32 }
%rtti.CompleteObjectLocator = type { i32, i32, i32, i32, i32, i32 }
%rtti.ClassHierarchyDescriptor = type { i32, i32, i32, i32 }
%rtti.BaseClassDescriptor = type { i32, i32, i32, i32, i32, i32, i32 }
%rtti.TypeDescriptor26 = type { i8**, i8*, [27 x i8] }
%rtti.TypeDescriptor22 = type { i8**, i8*, [23 x i8] }
%rtti.TypeDescriptor23 = type { i8**, i8*, [24 x i8] }
%eh.CatchableTypeArray.5 = type { i32, [5 x i32] }
%rtti.TypeDescriptor35 = type { i8**, i8*, [36 x i8] }
%rtti.TypeDescriptor24 = type { i8**, i8*, [25 x i8] }
%"class.std::locale::id" = type { i64 }
%rtti.TypeDescriptor20 = type { i8**, i8*, [21 x i8] }
%rtti.TypeDescriptor21 = type { i8**, i8*, [22 x i8] }
%rtti.TypeDescriptor25 = type { i8**, i8*, [26 x i8] }
%rtti.TypeDescriptor18 = type { i8**, i8*, [19 x i8] }
%eh.CatchableTypeArray.2 = type { i32, [2 x i32] }
%"struct.std::_Zero_then_variadic_args_t" = type { i8 }
%"struct.std::_Fake_allocator" = type { i8 }
%"struct.std::_Fake_proxy_ptr_impl" = type { i8 }
%"struct.std::_Container_base0" = type { i8 }
%"class.std::basic_ostream<char, std::char_traits<char>>::sentry" = type { %"class.std::basic_ostream<char, std::char_traits<char>>::_Sentry_base", i8 }
%"class.std::basic_ostream<char, std::char_traits<char>>::_Sentry_base" = type { %"class.std::basic_ostream"* }
%"class.std::thread" = type { %struct._Thrd_t }
%struct._Thrd_t = type { i8*, i32 }
%"class.std::unique_ptr.4" = type { %"class.std::_Compressed_pair.5" }
%"class.std::_Compressed_pair.5" = type { %"class.std::tuple"* }
%"class.std::tuple" = type { %"class.std::tuple.8", %"struct.std::_Tuple_val.10" }
%"class.std::tuple.8" = type { %"struct.std::_Tuple_val" }
%"struct.std::_Tuple_val" = type { i8* }
%"struct.std::_Tuple_val.10" = type { void (%"class.std::basic_string"*)* }
%struct._SECURITY_ATTRIBUTES = type { i32, i8*, i32 }
%"class.std::allocator" = type { i8 }
%class.anon = type { i8 }
%"class.std::bad_array_new_length" = type { %"class.std::bad_alloc" }
%"class.std::bad_alloc" = type { %"class.std::exception" }
%"class.std::exception" = type { i32 (...)**, %struct.__std_exception_data }
%struct.__std_exception_data = type { i8*, i8 }
%"class.std::ios_base::failure" = type { %"class.std::system_error" }
%"class.std::system_error" = type { %"class.std::_System_error" }
%"class.std::_System_error" = type { %"class.std::runtime_error", %"class.std::error_code" }
%"class.std::runtime_error" = type { %"class.std::exception" }
%"class.std::error_code" = type { i32, %"class.std::error_category"* }
%"class.std::error_category" = type { i32 (...)**, i64 }
%"class.std::_Iostream_error_category2" = type { %"class.std::error_category" }
%"class.std::error_condition" = type { i32, %"class.std::error_category"* }
%"struct.std::_One_then_variadic_args_t" = type { i8 }
%"struct.std::integral_constant" = type { i8 }
%class.anon.0 = type { i8 }
%"class.std::ctype" = type { %"struct.std::ctype_base", %struct._Ctypevec }
%"struct.std::ctype_base" = type { %"class.std::locale::facet" }
%struct._Ctypevec = type { i32, i16*, i32, i16* }
%"class.std::_Lockit" = type { i32 }
%"class.std::unique_ptr" = type { %"class.std::_Compressed_pair.2" }
%"class.std::_Compressed_pair.2" = type { %"class.std::_Facet_base"* }
%"class.std::_Locinfo" = type { %"class.std::_Lockit", %"class.std::_Yarn", %"class.std::_Yarn", %"class.std::_Yarn.3", %"class.std::_Yarn.3", %"class.std::_Yarn", %"class.std::_Yarn" }
%"class.std::_Yarn.3" = type { i16*, i16 }
%"class.std::bad_cast" = type { %"class.std::exception" }
%"struct.std::default_delete" = type { i8 }
%"struct.std::_Crt_new_delete" = type { i8 }
%"class.std::_Locbase" = type { i8 }
%"struct.std::default_delete.6" = type { i8 }
%"struct.std::_Exact_args_t" = type { i8 }
%"class.std::tuple.9" = type { i8 }

$"??0?$basic_string@DU?$char_traits@D@std@@V?$allocator@D@2@@std@@QEAA@QEBD@Z" = comdat any

$"??1?$basic_string@DU?$char_traits@D@std@@V?$allocator@D@2@@std@@QEAA@XZ" = comdat any

$"??$?6DU?$char_traits@D@std@@V?$allocator@D@1@@std@@YAAEAV?$basic_ostream@DU?$char_traits@D@std@@@0@AEAV10@AEBV?$basic_string@DU?$char_traits@D@std@@V?$allocator@D@2@@0@@Z" = comdat any

$"??$?6U?$char_traits@D@std@@@std@@YAAEAV?$basic_ostream@DU?$char_traits@D@std@@@0@AEAV10@PEBD@Z" = comdat any

$"??6?$basic_ostream@DU?$char_traits@D@std@@@std@@QEAAAEAV01@P6AAEAV01@AEAV01@@Z@Z" = comdat any

$"??$endl@DU?$char_traits@D@std@@@std@@YAAEAV?$basic_ostream@DU?$char_traits@D@std@@@0@AEAV10@@Z" = comdat any

$"??$?0A6AXV?$basic_string@DU?$char_traits@D@std@@V?$allocator@D@2@@std@@@ZAEAY05$$CBD$0A@@thread@std@@QEAA@A6AXV?$basic_string@DU?$char_traits@D@std@@V?$allocator@D@2@@1@@ZAEAY05$$CBD@Z" = comdat any

$"?join@thread@std@@QEAAXXZ" = comdat any

$"??1thread@std@@QEAA@XZ" = comdat any

$"?joinable@thread@std@@QEBA_NXZ" = comdat any

$"?_Tidy_deallocate@?$basic_string@DU?$char_traits@D@std@@V?$allocator@D@2@@std@@AEAAXXZ" = comdat any

$"??1?$_Compressed_pair@V?$allocator@D@std@@V?$_String_val@U?$_Simple_types@D@std@@@2@$00@std@@QEAA@XZ" = comdat any

$"?_Orphan_all@_Container_base0@std@@QEAAXXZ" = comdat any

$"?_Large_string_engaged@?$_String_val@U?$_Simple_types@D@std@@@std@@QEBA_NXZ" = comdat any

$"?_Getal@?$basic_string@DU?$char_traits@D@std@@V?$allocator@D@2@@std@@AEAAAEAV?$allocator@D@2@XZ" = comdat any

$"??$_Destroy_in_place@PEAD@std@@YAXAEAPEAD@Z" = comdat any

$"?deallocate@?$allocator@D@std@@QEAAXQEAD_K@Z" = comdat any

$"?assign@?$_Narrow_char_traits@DH@std@@SAXAEADAEBD@Z" = comdat any

$"?_Get_first@?$_Compressed_pair@V?$allocator@D@std@@V?$_String_val@U?$_Simple_types@D@std@@@2@$00@std@@QEAAAEAV?$allocator@D@2@XZ" = comdat any

$"??$_Deallocate@$0BA@$0A@@std@@YAXPEAX_K@Z" = comdat any

$"?_Adjust_manually_vector_aligned@std@@YAXAEAPEAXAEA_K@Z" = comdat any

$"??1?$_String_val@U?$_Simple_types@D@std@@@std@@QEAA@XZ" = comdat any

$"??1_Bxty@?$_String_val@U?$_Simple_types@D@std@@@std@@QEAA@XZ" = comdat any

$"??$?0$$V@?$_Compressed_pair@V?$allocator@D@std@@V?$_String_val@U?$_Simple_types@D@std@@@2@$00@std@@QEAA@U_Zero_then_variadic_args_t@1@@Z" = comdat any

$"??0_Fake_proxy_ptr_impl@std@@QEAA@AEBU_Fake_allocator@1@AEBU_Container_base0@1@@Z" = comdat any

$"?_Tidy_init@?$basic_string@DU?$char_traits@D@std@@V?$allocator@D@2@@std@@AEAAXXZ" = comdat any

$"?assign@?$basic_string@DU?$char_traits@D@std@@V?$allocator@D@2@@std@@QEAAAEAV12@QEBD@Z" = comdat any

$"?_Release@_Fake_proxy_ptr_impl@std@@QEAAXXZ" = comdat any

$"??0?$allocator@D@std@@QEAA@XZ" = comdat any

$"??0?$_String_val@U?$_Simple_types@D@std@@@std@@QEAA@XZ" = comdat any

$"??0_Bxty@?$_String_val@U?$_Simple_types@D@std@@@std@@QEAA@XZ" = comdat any

$"?assign@?$basic_string@DU?$char_traits@D@std@@V?$allocator@D@2@@std@@QEAAAEAV12@QEBD_K@Z" = comdat any

$"??$_Convert_size@_K@std@@YA_K_K@Z" = comdat any

$"?length@?$_Narrow_char_traits@DH@std@@SA_KQEBD@Z" = comdat any

$"?_Myptr@?$_String_val@U?$_Simple_types@D@std@@@std@@QEAAPEADXZ" = comdat any

$"?move@?$_Char_traits@DH@std@@SAPEADQEADQEBD_K@Z" = comdat any

$"??$_Reallocate_for@V<lambda_1>@?0??assign@?$basic_string@DU?$char_traits@D@std@@V?$allocator@D@2@@std@@QEAAAEAV34@QEBD_K@Z@PEBD@?$basic_string@DU?$char_traits@D@std@@V?$allocator@D@2@@std@@AEAAAEAV01@_KV<lambda_1>@?0??assign@01@QEAAAEAV01@QEBD0@Z@PEBD@Z" = comdat any

$"??$_Unfancy@D@std@@YAPEADPEAD@Z" = comdat any

$"?max_size@?$basic_string@DU?$char_traits@D@std@@V?$allocator@D@2@@std@@QEBA_KXZ" = comdat any

$"?_Xlen_string@std@@YAXXZ" = comdat any

$"?_Calculate_growth@?$basic_string@DU?$char_traits@D@std@@V?$allocator@D@2@@std@@AEBA_K_K@Z" = comdat any

$"?allocate@?$allocator@D@std@@QEAAPEAD_K@Z" = comdat any

$"??R<lambda_1>@?0??assign@?$basic_string@DU?$char_traits@D@std@@V?$allocator@D@2@@std@@QEAAAEAV23@QEBD_K@Z@QEBA?A?<auto>@@QEAD10@Z" = comdat any

$"??$_Construct_in_place@PEADAEBQEAD@std@@YAXAEAPEADAEBQEAD@Z" = comdat any

$"?max_size@?$_Default_allocator_traits@V?$allocator@D@std@@@std@@SA_KAEBV?$allocator@D@2@@Z" = comdat any

$"?_Getal@?$basic_string@DU?$char_traits@D@std@@V?$allocator@D@2@@std@@AEBAAEBV?$allocator@D@2@XZ" = comdat any

$"??$max@_K@std@@YAAEB_KAEB_K0@Z" = comdat any

$"??$min@_K@std@@YAAEB_KAEB_K0@Z" = comdat any

$"?max@?$numeric_limits@_J@std@@SA_JXZ" = comdat any

$"?_Get_first@?$_Compressed_pair@V?$allocator@D@std@@V?$_String_val@U?$_Simple_types@D@std@@@2@$00@std@@QEBAAEBV?$allocator@D@2@XZ" = comdat any

$"?_Calculate_growth@?$basic_string@DU?$char_traits@D@std@@V?$allocator@D@2@@std@@CA_K_K00@Z" = comdat any

$"??$_Allocate@$0BA@U_Default_allocate_traits@std@@$0A@@std@@YAPEAX_K@Z" = comdat any

$"??$_Get_size_of_n@$00@std@@YA_K_K@Z" = comdat any

$"??$_Allocate_manually_vector_aligned@U_Default_allocate_traits@std@@@std@@YAPEAX_K@Z" = comdat any

$"?_Allocate@_Default_allocate_traits@std@@SAPEAX_K@Z" = comdat any

$"?_Throw_bad_array_new_length@std@@YAXXZ" = comdat any

$"??0bad_array_new_length@std@@QEAA@XZ" = comdat any

$"??0bad_array_new_length@std@@QEAA@AEBV01@@Z" = comdat any

$"??0bad_alloc@std@@QEAA@AEBV01@@Z" = comdat any

$"??0exception@std@@QEAA@AEBV01@@Z" = comdat any

$"??1bad_array_new_length@std@@UEAA@XZ" = comdat any

$"??0bad_alloc@std@@AEAA@QEBD@Z" = comdat any

$"??_Gbad_array_new_length@std@@UEAAPEAXI@Z" = comdat any

$"?what@exception@std@@UEBAPEBDXZ" = comdat any

$"??0exception@std@@QEAA@QEBDH@Z" = comdat any

$"??_Gbad_alloc@std@@UEAAPEAXI@Z" = comdat any

$"??_Gexception@std@@UEAAPEAXI@Z" = comdat any

$"??1exception@std@@UEAA@XZ" = comdat any

$"??1bad_alloc@std@@UEAA@XZ" = comdat any

$"?copy@?$_Char_traits@DH@std@@SAPEADQEADQEBD_K@Z" = comdat any

$"??$addressof@PEAD@std@@YAPEAPEADAEAPEAD@Z" = comdat any

$"??$forward@AEBQEAD@std@@YAAEBQEADAEBQEAD@Z" = comdat any

$"?width@ios_base@std@@QEBA_JXZ" = comdat any

$"??0sentry@?$basic_ostream@DU?$char_traits@D@std@@@std@@QEAA@AEAV12@@Z" = comdat any

$"??Bsentry@?$basic_ostream@DU?$char_traits@D@std@@@std@@QEBA_NXZ" = comdat any

$"?flags@ios_base@std@@QEBAHXZ" = comdat any

$"?eq_int_type@?$_Narrow_char_traits@DH@std@@SA_NAEBH0@Z" = comdat any

$"?rdbuf@?$basic_ios@DU?$char_traits@D@std@@@std@@QEBAPEAV?$basic_streambuf@DU?$char_traits@D@std@@@2@XZ" = comdat any

$"?sputc@?$basic_streambuf@DU?$char_traits@D@std@@@std@@QEAAHD@Z" = comdat any

$"?fill@?$basic_ios@DU?$char_traits@D@std@@@std@@QEBADXZ" = comdat any

$"?eof@?$_Narrow_char_traits@DH@std@@SAHXZ" = comdat any

$"?sputn@?$basic_streambuf@DU?$char_traits@D@std@@@std@@QEAA_JPEBD_J@Z" = comdat any

$"?width@ios_base@std@@QEAA_J_J@Z" = comdat any

$"?setstate@?$basic_ios@DU?$char_traits@D@std@@@std@@QEAAXH_N@Z" = comdat any

$"??1sentry@?$basic_ostream@DU?$char_traits@D@std@@@std@@QEAA@XZ" = comdat any

$"??0_Sentry_base@?$basic_ostream@DU?$char_traits@D@std@@@std@@QEAA@AEAV12@@Z" = comdat any

$"?good@ios_base@std@@QEBA_NXZ" = comdat any

$"?tie@?$basic_ios@DU?$char_traits@D@std@@@std@@QEBAPEAV?$basic_ostream@DU?$char_traits@D@std@@@2@XZ" = comdat any

$"?flush@?$basic_ostream@DU?$char_traits@D@std@@@std@@QEAAAEAV12@XZ" = comdat any

$"??1_Sentry_base@?$basic_ostream@DU?$char_traits@D@std@@@std@@QEAA@XZ" = comdat any

$"?rdstate@ios_base@std@@QEBAHXZ" = comdat any

$"?pubsync@?$basic_streambuf@DU?$char_traits@D@std@@@std@@QEAAHXZ" = comdat any

$"?_Pnavail@?$basic_streambuf@DU?$char_traits@D@std@@@std@@IEBA_JXZ" = comdat any

$"?to_int_type@?$_Narrow_char_traits@DH@std@@SAHAEBD@Z" = comdat any

$"?_Pninc@?$basic_streambuf@DU?$char_traits@D@std@@@std@@IEAAPEADXZ" = comdat any

$"?clear@?$basic_ios@DU?$char_traits@D@std@@@std@@QEAAXH_N@Z" = comdat any

$"?clear@ios_base@std@@QEAAXH_N@Z" = comdat any

$"?make_error_code@std@@YA?AVerror_code@1@W4io_errc@1@@Z" = comdat any

$"??0failure@ios_base@std@@QEAA@PEBDAEBVerror_code@2@@Z" = comdat any

$"??0failure@ios_base@std@@QEAA@AEBV012@@Z" = comdat any

$"??0system_error@std@@QEAA@AEBV01@@Z" = comdat any

$"??0_System_error@std@@QEAA@AEBV01@@Z" = comdat any

$"??0runtime_error@std@@QEAA@AEBV01@@Z" = comdat any

$"??1failure@ios_base@std@@UEAA@XZ" = comdat any

$"?iostream_category@std@@YAAEBVerror_category@1@XZ" = comdat any

$"??0error_code@std@@QEAA@HAEBVerror_category@1@@Z" = comdat any

$"??$_Immortalize_memcpy_image@V_Iostream_error_category2@std@@@std@@YAAEBV_Iostream_error_category2@0@XZ" = comdat any

$"??1_Iostream_error_category2@std@@UEAA@XZ" = comdat any

$"??_G_Iostream_error_category2@std@@UEAAPEAXI@Z" = comdat any

$"?name@_Iostream_error_category2@std@@UEBAPEBDXZ" = comdat any

$"?message@_Iostream_error_category2@std@@UEBA?AV?$basic_string@DU?$char_traits@D@std@@V?$allocator@D@2@@2@H@Z" = comdat any

$"?default_error_condition@error_category@std@@UEBA?AVerror_condition@2@H@Z" = comdat any

$"?equivalent@error_category@std@@UEBA_NAEBVerror_code@2@H@Z" = comdat any

$"?equivalent@error_category@std@@UEBA_NHAEBVerror_condition@2@@Z" = comdat any

$"??1error_category@std@@UEAA@XZ" = comdat any

$"??0?$basic_string@DU?$char_traits@D@std@@V?$allocator@D@2@@std@@QEAA@QEBD_K@Z" = comdat any

$"??0error_condition@std@@QEAA@HAEBVerror_category@1@@Z" = comdat any

$"??8error_category@std@@QEBA_NAEBV01@@Z" = comdat any

$"?category@error_code@std@@QEBAAEBVerror_category@2@XZ" = comdat any

$"?value@error_code@std@@QEBAHXZ" = comdat any

$"??8std@@YA_NAEBVerror_condition@0@0@Z" = comdat any

$"?category@error_condition@std@@QEBAAEBVerror_category@2@XZ" = comdat any

$"?value@error_condition@std@@QEBAHXZ" = comdat any

$"??0system_error@std@@QEAA@Verror_code@1@PEBD@Z" = comdat any

$"??_Gfailure@ios_base@std@@UEAAPEAXI@Z" = comdat any

$"??0_System_error@std@@IEAA@Verror_code@1@AEBV?$basic_string@DU?$char_traits@D@std@@V?$allocator@D@2@@1@@Z" = comdat any

$"??_Gsystem_error@std@@UEAAPEAXI@Z" = comdat any

$"?_Makestr@_System_error@std@@CA?AV?$basic_string@DU?$char_traits@D@std@@V?$allocator@D@2@@2@Verror_code@2@V32@@Z" = comdat any

$"??0?$basic_string@DU?$char_traits@D@std@@V?$allocator@D@2@@std@@QEAA@AEBV01@@Z" = comdat any

$"??0runtime_error@std@@QEAA@AEBV?$basic_string@DU?$char_traits@D@std@@V?$allocator@D@2@@1@@Z" = comdat any

$"??_G_System_error@std@@UEAAPEAXI@Z" = comdat any

$"?empty@?$basic_string@DU?$char_traits@D@std@@V?$allocator@D@2@@std@@QEBA_NXZ" = comdat any

$"?append@?$basic_string@DU?$char_traits@D@std@@V?$allocator@D@2@@std@@QEAAAEAV12@QEBD@Z" = comdat any

$"?append@?$basic_string@DU?$char_traits@D@std@@V?$allocator@D@2@@std@@QEAAAEAV12@AEBV12@@Z" = comdat any

$"?message@error_code@std@@QEBA?AV?$basic_string@DU?$char_traits@D@std@@V?$allocator@D@2@@2@XZ" = comdat any

$"??0?$basic_string@DU?$char_traits@D@std@@V?$allocator@D@2@@std@@QEAA@$$QEAV01@@Z" = comdat any

$"?size@?$basic_string@DU?$char_traits@D@std@@V?$allocator@D@2@@std@@QEBA_KXZ" = comdat any

$"?append@?$basic_string@DU?$char_traits@D@std@@V?$allocator@D@2@@std@@QEAAAEAV12@QEBD_K@Z" = comdat any

$"??$_Reallocate_grow_by@V<lambda_1>@?0??append@?$basic_string@DU?$char_traits@D@std@@V?$allocator@D@2@@std@@QEAAAEAV34@QEBD_K@Z@PEBD_K@?$basic_string@DU?$char_traits@D@std@@V?$allocator@D@2@@std@@AEAAAEAV01@_KV<lambda_1>@?0??append@01@QEAAAEAV01@QEBD0@Z@PEBD_K@Z" = comdat any

$"??R<lambda_1>@?0??append@?$basic_string@DU?$char_traits@D@std@@V?$allocator@D@2@@std@@QEAAAEAV23@QEBD_K@Z@QEBA?A?<auto>@@QEAD0101@Z" = comdat any

$"?_Myptr@?$_String_val@U?$_Simple_types@D@std@@@std@@QEBAPEBDXZ" = comdat any

$"??$move@AEAV?$allocator@D@std@@@std@@YA$$QEAV?$allocator@D@0@AEAV10@@Z" = comdat any

$"??$?0V?$allocator@D@std@@$$V@?$_Compressed_pair@V?$allocator@D@std@@V?$_String_val@U?$_Simple_types@D@std@@@2@$00@std@@QEAA@U_One_then_variadic_args_t@1@$$QEAV?$allocator@D@1@@Z" = comdat any

$"?_Alloc_proxy@_Container_base0@std@@QEAAXAEBU_Fake_allocator@2@@Z" = comdat any

$"?_Take_contents@?$basic_string@DU?$char_traits@D@std@@V?$allocator@D@2@@std@@AEAAXAEAV12@U?$integral_constant@_N$00@2@@Z" = comdat any

$"??$forward@V?$allocator@D@std@@@std@@YA$$QEAV?$allocator@D@0@AEAV10@@Z" = comdat any

$"?_Memcpy_val_from@?$basic_string@DU?$char_traits@D@std@@V?$allocator@D@2@@std@@AEAAXAEBV12@@Z" = comdat any

$"??$addressof@V?$_String_val@U?$_Simple_types@D@std@@@std@@@std@@YAPEAV?$_String_val@U?$_Simple_types@D@std@@@0@AEAV10@@Z" = comdat any

$"??$addressof@$$CBV?$_String_val@U?$_Simple_types@D@std@@@std@@@std@@YAPEBV?$_String_val@U?$_Simple_types@D@std@@@0@AEBV10@@Z" = comdat any

$"?select_on_container_copy_construction@?$_Default_allocator_traits@V?$allocator@D@std@@@std@@SA?AV?$allocator@D@2@AEBV32@@Z" = comdat any

$"?_Construct_lv_contents@?$basic_string@DU?$char_traits@D@std@@V?$allocator@D@2@@std@@AEAAXAEBV12@@Z" = comdat any

$"?c_str@?$basic_string@DU?$char_traits@D@std@@V?$allocator@D@2@@std@@QEBAPEBDXZ" = comdat any

$"??0exception@std@@QEAA@QEBD@Z" = comdat any

$"??_Gruntime_error@std@@UEAAPEAXI@Z" = comdat any

$"??1runtime_error@std@@UEAA@XZ" = comdat any

$"??1_System_error@std@@UEAA@XZ" = comdat any

$"??1system_error@std@@UEAA@XZ" = comdat any

$"?_Osfx@?$basic_ostream@DU?$char_traits@D@std@@@std@@QEAAXXZ" = comdat any

$"??$_Insert_string@DU?$char_traits@D@std@@_K@std@@YAAEAV?$basic_ostream@DU?$char_traits@D@std@@@0@AEAV10@QEBD_K@Z" = comdat any

$"?data@?$basic_string@DU?$char_traits@D@std@@V?$allocator@D@2@@std@@QEBAPEBDXZ" = comdat any

$"?put@?$basic_ostream@DU?$char_traits@D@std@@@std@@QEAAAEAV12@D@Z" = comdat any

$"?widen@?$basic_ios@DU?$char_traits@D@std@@@std@@QEBADD@Z" = comdat any

$"??$use_facet@V?$ctype@D@std@@@std@@YAAEBV?$ctype@D@0@AEBVlocale@0@@Z" = comdat any

$"?getloc@ios_base@std@@QEBA?AVlocale@2@XZ" = comdat any

$"?widen@?$ctype@D@std@@QEBADD@Z" = comdat any

$"??1locale@std@@QEAA@XZ" = comdat any

$"??Bid@locale@std@@QEAA_KXZ" = comdat any

$"?_Getfacet@locale@std@@QEBAPEBVfacet@12@_K@Z" = comdat any

$"?_Getcat@?$ctype@D@std@@SA_KPEAPEBVfacet@locale@2@PEBV42@@Z" = comdat any

$"?_Throw_bad_cast@std@@YAXXZ" = comdat any

$"??$?0U?$default_delete@V_Facet_base@std@@@std@@$0A@@?$unique_ptr@V_Facet_base@std@@U?$default_delete@V_Facet_base@std@@@2@@std@@QEAA@PEAV_Facet_base@1@@Z" = comdat any

$"?release@?$unique_ptr@V_Facet_base@std@@U?$default_delete@V_Facet_base@std@@@2@@std@@QEAAPEAV_Facet_base@2@XZ" = comdat any

$"??1?$unique_ptr@V_Facet_base@std@@U?$default_delete@V_Facet_base@std@@@2@@std@@QEAA@XZ" = comdat any

$"?c_str@locale@std@@QEBAPEBDXZ" = comdat any

$"??0_Locinfo@std@@QEAA@PEBD@Z" = comdat any

$"??0?$ctype@D@std@@QEAA@AEBV_Locinfo@1@_K@Z" = comdat any

$"??1_Locinfo@std@@QEAA@XZ" = comdat any

$"?c_str@?$_Yarn@D@std@@QEBAPEBDXZ" = comdat any

$"??0?$_Yarn@D@std@@QEAA@XZ" = comdat any

$"??0?$_Yarn@_W@std@@QEAA@XZ" = comdat any

$"??1?$_Yarn@D@std@@QEAA@XZ" = comdat any

$"??1?$_Yarn@_W@std@@QEAA@XZ" = comdat any

$"?_Tidy@?$_Yarn@D@std@@AEAAXXZ" = comdat any

$"?_Tidy@?$_Yarn@_W@std@@AEAAXXZ" = comdat any

$"??0ctype_base@std@@QEAA@_K@Z" = comdat any

$"?_Init@?$ctype@D@std@@IEAAXAEBV_Locinfo@2@@Z" = comdat any

$"??1ctype_base@std@@UEAA@XZ" = comdat any

$"??_G?$ctype@D@std@@MEAAPEAXI@Z" = comdat any

$"?_Incref@facet@locale@std@@UEAAXXZ" = comdat any

$"?_Decref@facet@locale@std@@UEAAPEAV_Facet_base@3@XZ" = comdat any

$"?do_tolower@?$ctype@D@std@@MEBAPEBDPEADPEBD@Z" = comdat any

$"?do_tolower@?$ctype@D@std@@MEBADD@Z" = comdat any

$"?do_toupper@?$ctype@D@std@@MEBAPEBDPEADPEBD@Z" = comdat any

$"?do_toupper@?$ctype@D@std@@MEBADD@Z" = comdat any

$"?do_widen@?$ctype@D@std@@MEBAPEBDPEBD0PEAD@Z" = comdat any

$"?do_widen@?$ctype@D@std@@MEBADD@Z" = comdat any

$"?do_narrow@?$ctype@D@std@@MEBAPEBDPEBD0DPEAD@Z" = comdat any

$"?do_narrow@?$ctype@D@std@@MEBADDD@Z" = comdat any

$"??0facet@locale@std@@IEAA@_K@Z" = comdat any

$"??_Gctype_base@std@@UEAAPEAXI@Z" = comdat any

$"??0_Facet_base@std@@QEAA@XZ" = comdat any

$"??_Gfacet@locale@std@@MEAAPEAXI@Z" = comdat any

$"??_G_Facet_base@std@@UEAAPEAXI@Z" = comdat any

$"??1facet@locale@std@@MEAA@XZ" = comdat any

$"??1_Facet_base@std@@UEAA@XZ" = comdat any

$"?_Getctype@_Locinfo@std@@QEBA?AU_Ctypevec@@XZ" = comdat any

$"??1?$ctype@D@std@@MEAA@XZ" = comdat any

$"?_Tidy@?$ctype@D@std@@IEAAXXZ" = comdat any

$"??$_Adl_verify_range@PEADPEBD@std@@YAXAEBQEADAEBQEBD@Z" = comdat any

$"??$_Adl_verify_range@PEBDPEBD@std@@YAXAEBQEBD0@Z" = comdat any

$"??0bad_cast@std@@QEAA@XZ" = comdat any

$"??0bad_cast@std@@QEAA@AEBV01@@Z" = comdat any

$"??1bad_cast@std@@UEAA@XZ" = comdat any

$"??_Gbad_cast@std@@UEAAPEAXI@Z" = comdat any

$"??$?0AEAPEAV_Facet_base@std@@@?$_Compressed_pair@U?$default_delete@V_Facet_base@std@@@std@@PEAV_Facet_base@2@$00@std@@QEAA@U_Zero_then_variadic_args_t@1@AEAPEAV_Facet_base@1@@Z" = comdat any

$"??$forward@AEAPEAV_Facet_base@std@@@std@@YAAEAPEAV_Facet_base@0@AEAPEAV10@@Z" = comdat any

$"??$exchange@PEAV_Facet_base@std@@PEAV12@@std@@YAPEAV_Facet_base@0@AEAPEAV10@$$QEAPEAV10@@Z" = comdat any

$"?_Get_first@?$_Compressed_pair@U?$default_delete@V_Facet_base@std@@@std@@PEAV_Facet_base@2@$00@std@@QEAAAEAU?$default_delete@V_Facet_base@std@@@2@XZ" = comdat any

$"??R?$default_delete@V_Facet_base@std@@@std@@QEBAXPEAV_Facet_base@1@@Z" = comdat any

$"??0locale@std@@QEAA@AEBV01@@Z" = comdat any

$"??$make_unique@V?$tuple@P6AXV?$basic_string@DU?$char_traits@D@std@@V?$allocator@D@2@@std@@@ZPEBD@std@@A6AXV?$basic_string@DU?$char_traits@D@std@@V?$allocator@D@2@@2@@ZAEAY05$$CBD$0A@@std@@YA?AV?$unique_ptr@V?$tuple@P6AXV?$basic_string@DU?$char_traits@D@std@@V?$allocator@D@2@@std@@@ZPEBD@std@@U?$default_delete@V?$tuple@P6AXV?$basic_string@DU?$char_traits@D@std@@V?$allocator@D@2@@std@@@ZPEBD@std@@@2@@0@A6AXV?$basic_string@DU?$char_traits@D@std@@V?$allocator@D@2@@0@@ZAEAY05$$CBD@Z" = comdat any

$"??$forward@AEAY05$$CBD@std@@YAAEAY05$$CBDAEAY05$$CBD@Z" = comdat any

$"??$forward@A6AXV?$basic_string@DU?$char_traits@D@std@@V?$allocator@D@2@@std@@@Z@std@@YAA6AXV?$basic_string@DU?$char_traits@D@std@@V?$allocator@D@2@@0@@ZA6AX0@Z@Z" = comdat any

$"??$?0U?$default_delete@V?$tuple@P6AXV?$basic_string@DU?$char_traits@D@std@@V?$allocator@D@2@@std@@@ZPEBD@std@@@std@@$0A@@?$unique_ptr@V?$tuple@P6AXV?$basic_string@DU?$char_traits@D@std@@V?$allocator@D@2@@std@@@ZPEBD@std@@U?$default_delete@V?$tuple@P6AXV?$basic_string@DU?$char_traits@D@std@@V?$allocator@D@2@@std@@@ZPEBD@std@@@2@@std@@QEAA@$$QEAV01@@Z" = comdat any

$"??1?$unique_ptr@V?$tuple@P6AXV?$basic_string@DU?$char_traits@D@std@@V?$allocator@D@2@@std@@@ZPEBD@std@@U?$default_delete@V?$tuple@P6AXV?$basic_string@DU?$char_traits@D@std@@V?$allocator@D@2@@std@@@ZPEBD@std@@@2@@std@@QEAA@XZ" = comdat any

$"??$_Invoke@V?$tuple@P6AXV?$basic_string@DU?$char_traits@D@std@@V?$allocator@D@2@@std@@@ZPEBD@std@@$0A@$00@thread@std@@CAIPEAX@Z" = comdat any

$"?get@?$unique_ptr@V?$tuple@P6AXV?$basic_string@DU?$char_traits@D@std@@V?$allocator@D@2@@std@@@ZPEBD@std@@U?$default_delete@V?$tuple@P6AXV?$basic_string@DU?$char_traits@D@std@@V?$allocator@D@2@@std@@@ZPEBD@std@@@2@@std@@QEBAPEAV?$tuple@P6AXV?$basic_string@DU?$char_traits@D@std@@V?$allocator@D@2@@std@@@ZPEBD@2@XZ" = comdat any

$"?release@?$unique_ptr@V?$tuple@P6AXV?$basic_string@DU?$char_traits@D@std@@V?$allocator@D@2@@std@@@ZPEBD@std@@U?$default_delete@V?$tuple@P6AXV?$basic_string@DU?$char_traits@D@std@@V?$allocator@D@2@@std@@@ZPEBD@std@@@2@@std@@QEAAPEAV?$tuple@P6AXV?$basic_string@DU?$char_traits@D@std@@V?$allocator@D@2@@std@@@ZPEBD@2@XZ" = comdat any

$"??$?0P6AXV?$basic_string@DU?$char_traits@D@std@@V?$allocator@D@2@@std@@@Z$0A@@?$tuple@P6AXV?$basic_string@DU?$char_traits@D@std@@V?$allocator@D@2@@std@@@ZPEBD@std@@QEAA@AEBQ6AXV?$basic_string@DU?$char_traits@D@std@@V?$allocator@D@2@@1@@ZAEBQEBD@Z" = comdat any

$"??$?0U?$default_delete@V?$tuple@P6AXV?$basic_string@DU?$char_traits@D@std@@V?$allocator@D@2@@std@@@ZPEBD@std@@@std@@$0A@@?$unique_ptr@V?$tuple@P6AXV?$basic_string@DU?$char_traits@D@std@@V?$allocator@D@2@@std@@@ZPEBD@std@@U?$default_delete@V?$tuple@P6AXV?$basic_string@DU?$char_traits@D@std@@V?$allocator@D@2@@std@@@ZPEBD@std@@@2@@std@@QEAA@PEAV?$tuple@P6AXV?$basic_string@DU?$char_traits@D@std@@V?$allocator@D@2@@std@@@ZPEBD@1@@Z" = comdat any

$"??$?0U_Exact_args_t@std@@AEBQ6AXV?$basic_string@DU?$char_traits@D@std@@V?$allocator@D@2@@1@@ZAEBQEBD$0A@@?$tuple@P6AXV?$basic_string@DU?$char_traits@D@std@@V?$allocator@D@2@@std@@@ZPEBD@std@@QEAA@U_Exact_args_t@1@AEBQ6AXV?$basic_string@DU?$char_traits@D@std@@V?$allocator@D@2@@1@@ZAEBQEBD@Z" = comdat any

$"??$forward@AEBQEBD@std@@YAAEBQEBDAEBQEBD@Z" = comdat any

$"??$?0U_Exact_args_t@std@@AEBQEBD$$V$0A@@?$tuple@PEBD@std@@QEAA@U_Exact_args_t@1@AEBQEBD@Z" = comdat any

$"??$forward@AEBQ6AXV?$basic_string@DU?$char_traits@D@std@@V?$allocator@D@2@@std@@@Z@std@@YAAEBQ6AXV?$basic_string@DU?$char_traits@D@std@@V?$allocator@D@2@@0@@ZAEBQ6AX0@Z@Z" = comdat any

$"??$?0AEBQ6AXV?$basic_string@DU?$char_traits@D@std@@V?$allocator@D@2@@std@@@Z@?$_Tuple_val@P6AXV?$basic_string@DU?$char_traits@D@std@@V?$allocator@D@2@@std@@@Z@std@@QEAA@AEBQ6AXV?$basic_string@DU?$char_traits@D@std@@V?$allocator@D@2@@1@@Z@Z" = comdat any

$"??$?0U_Exact_args_t@std@@$0A@@?$tuple@$$V@std@@QEAA@U_Exact_args_t@1@@Z" = comdat any

$"??$?0AEBQEBD@?$_Tuple_val@PEBD@std@@QEAA@AEBQEBD@Z" = comdat any

$"??$?0AEAPEAV?$tuple@P6AXV?$basic_string@DU?$char_traits@D@std@@V?$allocator@D@2@@std@@@ZPEBD@std@@@?$_Compressed_pair@U?$default_delete@V?$tuple@P6AXV?$basic_string@DU?$char_traits@D@std@@V?$allocator@D@2@@std@@@ZPEBD@std@@@std@@PEAV?$tuple@P6AXV?$basic_string@DU?$char_traits@D@std@@V?$allocator@D@2@@std@@@ZPEBD@2@$00@std@@QEAA@U_Zero_then_variadic_args_t@1@AEAPEAV?$tuple@P6AXV?$basic_string@DU?$char_traits@D@std@@V?$allocator@D@2@@std@@@ZPEBD@1@@Z" = comdat any

$"??$forward@AEAPEAV?$tuple@P6AXV?$basic_string@DU?$char_traits@D@std@@V?$allocator@D@2@@std@@@ZPEBD@std@@@std@@YAAEAPEAV?$tuple@P6AXV?$basic_string@DU?$char_traits@D@std@@V?$allocator@D@2@@std@@@ZPEBD@0@AEAPEAV10@@Z" = comdat any

$"??$forward@U?$default_delete@V?$tuple@P6AXV?$basic_string@DU?$char_traits@D@std@@V?$allocator@D@2@@std@@@ZPEBD@std@@@std@@@std@@YA$$QEAU?$default_delete@V?$tuple@P6AXV?$basic_string@DU?$char_traits@D@std@@V?$allocator@D@2@@std@@@ZPEBD@std@@@0@AEAU10@@Z" = comdat any

$"?get_deleter@?$unique_ptr@V?$tuple@P6AXV?$basic_string@DU?$char_traits@D@std@@V?$allocator@D@2@@std@@@ZPEBD@std@@U?$default_delete@V?$tuple@P6AXV?$basic_string@DU?$char_traits@D@std@@V?$allocator@D@2@@std@@@ZPEBD@std@@@2@@std@@QEAAAEAU?$default_delete@V?$tuple@P6AXV?$basic_string@DU?$char_traits@D@std@@V?$allocator@D@2@@std@@@ZPEBD@std@@@2@XZ" = comdat any

$"??$?0U?$default_delete@V?$tuple@P6AXV?$basic_string@DU?$char_traits@D@std@@V?$allocator@D@2@@std@@@ZPEBD@std@@@std@@PEAV?$tuple@P6AXV?$basic_string@DU?$char_traits@D@std@@V?$allocator@D@2@@std@@@ZPEBD@1@@?$_Compressed_pair@U?$default_delete@V?$tuple@P6AXV?$basic_string@DU?$char_traits@D@std@@V?$allocator@D@2@@std@@@ZPEBD@std@@@std@@PEAV?$tuple@P6AXV?$basic_string@DU?$char_traits@D@std@@V?$allocator@D@2@@std@@@ZPEBD@2@$00@std@@QEAA@U_One_then_variadic_args_t@1@$$QEAU?$default_delete@V?$tuple@P6AXV?$basic_string@DU?$char_traits@D@std@@V?$allocator@D@2@@std@@@ZPEBD@std@@@1@$$QEAPEAV?$tuple@P6AXV?$basic_string@DU?$char_traits@D@std@@V?$allocator@D@2@@std@@@ZPEBD@1@@Z" = comdat any

$"?_Get_first@?$_Compressed_pair@U?$default_delete@V?$tuple@P6AXV?$basic_string@DU?$char_traits@D@std@@V?$allocator@D@2@@std@@@ZPEBD@std@@@std@@PEAV?$tuple@P6AXV?$basic_string@DU?$char_traits@D@std@@V?$allocator@D@2@@std@@@ZPEBD@2@$00@std@@QEAAAEAU?$default_delete@V?$tuple@P6AXV?$basic_string@DU?$char_traits@D@std@@V?$allocator@D@2@@std@@@ZPEBD@std@@@2@XZ" = comdat any

$"??$forward@PEAV?$tuple@P6AXV?$basic_string@DU?$char_traits@D@std@@V?$allocator@D@2@@std@@@ZPEBD@std@@@std@@YA$$QEAPEAV?$tuple@P6AXV?$basic_string@DU?$char_traits@D@std@@V?$allocator@D@2@@std@@@ZPEBD@0@AEAPEAV10@@Z" = comdat any

$"??R?$default_delete@V?$tuple@P6AXV?$basic_string@DU?$char_traits@D@std@@V?$allocator@D@2@@std@@@ZPEBD@std@@@std@@QEBAXPEAV?$tuple@P6AXV?$basic_string@DU?$char_traits@D@std@@V?$allocator@D@2@@std@@@ZPEBD@1@@Z" = comdat any

$"??D?$unique_ptr@V?$tuple@P6AXV?$basic_string@DU?$char_traits@D@std@@V?$allocator@D@2@@std@@@ZPEBD@std@@U?$default_delete@V?$tuple@P6AXV?$basic_string@DU?$char_traits@D@std@@V?$allocator@D@2@@std@@@ZPEBD@std@@@2@@std@@QEBAAEAV?$tuple@P6AXV?$basic_string@DU?$char_traits@D@std@@V?$allocator@D@2@@std@@@ZPEBD@1@XZ" = comdat any

$"??$invoke@P6AXV?$basic_string@DU?$char_traits@D@std@@V?$allocator@D@2@@std@@@ZPEBD$$V@std@@YAX$$QEAP6AXV?$basic_string@DU?$char_traits@D@std@@V?$allocator@D@2@@0@@Z$$QEAPEBD@Z" = comdat any

$"??$move@AEAPEBD@std@@YA$$QEAPEBDAEAPEBD@Z" = comdat any

$"??$get@$00P6AXV?$basic_string@DU?$char_traits@D@std@@V?$allocator@D@2@@std@@@ZPEBD@std@@YAAEAPEBDAEAV?$tuple@P6AXV?$basic_string@DU?$char_traits@D@std@@V?$allocator@D@2@@std@@@ZPEBD@0@@Z" = comdat any

$"??$move@AEAP6AXV?$basic_string@DU?$char_traits@D@std@@V?$allocator@D@2@@std@@@Z@std@@YA$$QEAP6AXV?$basic_string@DU?$char_traits@D@std@@V?$allocator@D@2@@0@@ZAEAP6AX0@Z@Z" = comdat any

$"??$get@$0A@P6AXV?$basic_string@DU?$char_traits@D@std@@V?$allocator@D@2@@std@@@ZPEBD@std@@YAAEAP6AXV?$basic_string@DU?$char_traits@D@std@@V?$allocator@D@2@@0@@ZAEAV?$tuple@P6AXV?$basic_string@DU?$char_traits@D@std@@V?$allocator@D@2@@std@@@ZPEBD@0@@Z" = comdat any

$"??$exchange@PEAV?$tuple@P6AXV?$basic_string@DU?$char_traits@D@std@@V?$allocator@D@2@@std@@@ZPEBD@std@@PEAV12@@std@@YAPEAV?$tuple@P6AXV?$basic_string@DU?$char_traits@D@std@@V?$allocator@D@2@@std@@@ZPEBD@0@AEAPEAV10@$$QEAPEAV10@@Z" = comdat any

$"??_C@_05COLMCDPH@Hello?$AA@" = comdat any

$"??_C@_0N@JINCCNNL@task1?5says?3?5?$AA@" = comdat any

$"??_C@_0BA@JFNIOLAK@string?5too?5long?$AA@" = comdat any

$"??_R0?AVbad_array_new_length@std@@@8" = comdat any

$"_CT??_R0?AVbad_array_new_length@std@@@8??0bad_array_new_length@std@@QEAA@AEBV01@@Z24" = comdat any

$"??_R0?AVbad_alloc@std@@@8" = comdat any

$"_CT??_R0?AVbad_alloc@std@@@8??0bad_alloc@std@@QEAA@AEBV01@@Z24" = comdat any

$"??_R0?AVexception@std@@@8" = comdat any

$"_CT??_R0?AVexception@std@@@8??0exception@std@@QEAA@AEBV01@@Z24" = comdat any

$"_CTA3?AVbad_array_new_length@std@@" = comdat any

$"_TI3?AVbad_array_new_length@std@@" = comdat any

$"??_C@_0BF@KINCDENJ@bad?5array?5new?5length?$AA@" = comdat any

$"??_7bad_array_new_length@std@@6B@" = comdat largest

$"??_R4bad_array_new_length@std@@6B@" = comdat any

$"??_R3bad_array_new_length@std@@8" = comdat any

$"??_R2bad_array_new_length@std@@8" = comdat any

$"??_R1A@?0A@EA@bad_array_new_length@std@@8" = comdat any

$"??_R1A@?0A@EA@bad_alloc@std@@8" = comdat any

$"??_R3bad_alloc@std@@8" = comdat any

$"??_R2bad_alloc@std@@8" = comdat any

$"??_R1A@?0A@EA@exception@std@@8" = comdat any

$"??_R3exception@std@@8" = comdat any

$"??_R2exception@std@@8" = comdat any

$"??_7bad_alloc@std@@6B@" = comdat largest

$"??_R4bad_alloc@std@@6B@" = comdat any

$"??_7exception@std@@6B@" = comdat largest

$"??_R4exception@std@@6B@" = comdat any

$"??_C@_0BC@EOODALEL@Unknown?5exception?$AA@" = comdat any

$"??_C@_0BF@PHHKMMFD@ios_base?3?3badbit?5set?$AA@" = comdat any

$"??_C@_0BG@FMKFHCIL@ios_base?3?3failbit?5set?$AA@" = comdat any

$"??_C@_0BF@OOHOMBOF@ios_base?3?3eofbit?5set?$AA@" = comdat any

$"??_R0?AVfailure@ios_base@std@@@8" = comdat any

$"_CT??_R0?AVfailure@ios_base@std@@@8??0failure@ios_base@std@@QEAA@AEBV012@@Z40" = comdat any

$"??_R0?AVsystem_error@std@@@8" = comdat any

$"_CT??_R0?AVsystem_error@std@@@8??0system_error@std@@QEAA@AEBV01@@Z40" = comdat any

$"??_R0?AV_System_error@std@@@8" = comdat any

$"_CT??_R0?AV_System_error@std@@@8??0_System_error@std@@QEAA@AEBV01@@Z40" = comdat any

$"??_R0?AVruntime_error@std@@@8" = comdat any

$"_CT??_R0?AVruntime_error@std@@@8??0runtime_error@std@@QEAA@AEBV01@@Z24" = comdat any

$"_CTA5?AVfailure@ios_base@std@@" = comdat any

$"_TI5?AVfailure@ios_base@std@@" = comdat any

$"?_Static@?1???$_Immortalize_memcpy_image@V_Iostream_error_category2@std@@@std@@YAAEBV_Iostream_error_category2@1@XZ@4V21@A" = comdat any

$"??_7_Iostream_error_category2@std@@6B@" = comdat largest

$"?$TSS0@?1???$_Immortalize_memcpy_image@V_Iostream_error_category2@std@@@std@@YAAEBV_Iostream_error_category2@0@XZ@4HA" = comdat any

$"??_R4_Iostream_error_category2@std@@6B@" = comdat any

$"??_R0?AV_Iostream_error_category2@std@@@8" = comdat any

$"??_R3_Iostream_error_category2@std@@8" = comdat any

$"??_R2_Iostream_error_category2@std@@8" = comdat any

$"??_R1A@?0A@EA@_Iostream_error_category2@std@@8" = comdat any

$"??_R1A@?0A@EA@error_category@std@@8" = comdat any

$"??_R0?AVerror_category@std@@@8" = comdat any

$"??_R3error_category@std@@8" = comdat any

$"??_R2error_category@std@@8" = comdat any

$"??_C@_08LLGCOLLL@iostream?$AA@" = comdat any

$"?_Iostream_error@?4??message@_Iostream_error_category2@std@@UEBA?AV?$basic_string@DU?$char_traits@D@std@@V?$allocator@D@2@@3@H@Z@4QBDB" = comdat any

$"??_7failure@ios_base@std@@6B@" = comdat largest

$"??_R4failure@ios_base@std@@6B@" = comdat any

$"??_R3failure@ios_base@std@@8" = comdat any

$"??_R2failure@ios_base@std@@8" = comdat any

$"??_R1A@?0A@EA@failure@ios_base@std@@8" = comdat any

$"??_R1A@?0A@EA@system_error@std@@8" = comdat any

$"??_R3system_error@std@@8" = comdat any

$"??_R2system_error@std@@8" = comdat any

$"??_R1A@?0A@EA@_System_error@std@@8" = comdat any

$"??_R3_System_error@std@@8" = comdat any

$"??_R2_System_error@std@@8" = comdat any

$"??_R1A@?0A@EA@runtime_error@std@@8" = comdat any

$"??_R3runtime_error@std@@8" = comdat any

$"??_R2runtime_error@std@@8" = comdat any

$"??_7system_error@std@@6B@" = comdat largest

$"??_R4system_error@std@@6B@" = comdat any

$"??_7_System_error@std@@6B@" = comdat largest

$"??_R4_System_error@std@@6B@" = comdat any

$"??_C@_02LMMGGCAJ@?3?5?$AA@" = comdat any

$"??_7runtime_error@std@@6B@" = comdat largest

$"??_R4runtime_error@std@@6B@" = comdat any

$"?_Psave@?$_Facetptr@V?$ctype@D@std@@@std@@2PEBVfacet@locale@2@EB" = comdat any

$"??_C@_00CNPNBAHC@?$AA@" = comdat any

$"??_C@_0BA@ELKIONDK@bad?5locale?5name?$AA@" = comdat any

$"??_7?$ctype@D@std@@6B@" = comdat largest

$"??_R4?$ctype@D@std@@6B@" = comdat any

$"??_R0?AV?$ctype@D@std@@@8" = comdat any

$"??_R3?$ctype@D@std@@8" = comdat any

$"??_R2?$ctype@D@std@@8" = comdat any

$"??_R1A@?0A@EA@?$ctype@D@std@@8" = comdat any

$"??_R1A@?0A@EA@ctype_base@std@@8" = comdat any

$"??_R0?AUctype_base@std@@@8" = comdat any

$"??_R3ctype_base@std@@8" = comdat any

$"??_R2ctype_base@std@@8" = comdat any

$"??_R1A@?0A@EA@facet@locale@std@@8" = comdat any

$"??_R0?AVfacet@locale@std@@@8" = comdat any

$"??_R3facet@locale@std@@8" = comdat any

$"??_R2facet@locale@std@@8" = comdat any

$"??_R1A@?0A@EA@_Facet_base@std@@8" = comdat any

$"??_R0?AV_Facet_base@std@@@8" = comdat any

$"??_R3_Facet_base@std@@8" = comdat any

$"??_R2_Facet_base@std@@8" = comdat any

$"??_R17?0A@EA@_Crt_new_delete@std@@8" = comdat any

$"??_R0?AU_Crt_new_delete@std@@@8" = comdat any

$"??_R3_Crt_new_delete@std@@8" = comdat any

$"??_R2_Crt_new_delete@std@@8" = comdat any

$"??_R1A@?0A@EA@_Crt_new_delete@std@@8" = comdat any

$"??_7ctype_base@std@@6B@" = comdat largest

$"??_R4ctype_base@std@@6B@" = comdat any

$"??_7facet@locale@std@@6B@" = comdat largest

$"??_R4facet@locale@std@@6B@" = comdat any

$"??_7_Facet_base@std@@6B@" = comdat largest

$"??_R4_Facet_base@std@@6B@" = comdat any

$"??_R0?AVbad_cast@std@@@8" = comdat any

$"_CT??_R0?AVbad_cast@std@@@8??0bad_cast@std@@QEAA@AEBV01@@Z24" = comdat any

$"_CTA2?AVbad_cast@std@@" = comdat any

$"_TI2?AVbad_cast@std@@" = comdat any

$"??_C@_08EPJLHIJG@bad?5cast?$AA@" = comdat any

$"??_7bad_cast@std@@6B@" = comdat largest

$"??_R4bad_cast@std@@6B@" = comdat any

$"??_R3bad_cast@std@@8" = comdat any

$"??_R2bad_cast@std@@8" = comdat any

$"??_R1A@?0A@EA@bad_cast@std@@8" = comdat any

@"?hello@@3V?$basic_string@DU?$char_traits@D@std@@V?$allocator@D@2@@std@@A" = dso_local global %"class.std::basic_string" zeroinitializer, align 8
@"??_C@_05COLMCDPH@Hello?$AA@" = linkonce_odr dso_local unnamed_addr constant [6 x i8] c"Hello\00", comdat, align 1
@"?cout@std@@3V?$basic_ostream@DU?$char_traits@D@std@@@1@A" = external dso_local global %"class.std::basic_ostream", align 8
@"??_C@_0N@JINCCNNL@task1?5says?3?5?$AA@" = linkonce_odr dso_local unnamed_addr constant [13 x i8] c"task1 says: \00", comdat, align 1
@"??_C@_0BA@JFNIOLAK@string?5too?5long?$AA@" = linkonce_odr dso_local unnamed_addr constant [16 x i8] c"string too long\00", comdat, align 1
@"??_7type_info@@6B@" = external constant i8*
@"??_R0?AVbad_array_new_length@std@@@8" = linkonce_odr global %rtti.TypeDescriptor30 { i8** @"??_7type_info@@6B@", i8* null, [31 x i8] c".?AVbad_array_new_length@std@@\00" }, comdat
@__ImageBase = external dso_local constant i8
@"_CT??_R0?AVbad_array_new_length@std@@@8??0bad_array_new_length@std@@QEAA@AEBV01@@Z24" = linkonce_odr unnamed_addr constant %eh.CatchableType { i32 0, i32 trunc (i64 sub nuw nsw (i64 ptrtoint (%rtti.TypeDescriptor30* @"??_R0?AVbad_array_new_length@std@@@8" to i64), i64 ptrtoint (i8* @__ImageBase to i64)) to i32), i32 0, i32 -1, i32 0, i32 24, i32 trunc (i64 sub nuw nsw (i64 ptrtoint (%"class.std::bad_array_new_length"* (%"class.std::bad_array_new_length"*, %"class.std::bad_array_new_length"*)* @"??0bad_array_new_length@std@@QEAA@AEBV01@@Z" to i64), i64 ptrtoint (i8* @__ImageBase to i64)) to i32) }, section ".xdata", comdat
@"??_R0?AVbad_alloc@std@@@8" = linkonce_odr global %rtti.TypeDescriptor19 { i8** @"??_7type_info@@6B@", i8* null, [20 x i8] c".?AVbad_alloc@std@@\00" }, comdat
@"_CT??_R0?AVbad_alloc@std@@@8??0bad_alloc@std@@QEAA@AEBV01@@Z24" = linkonce_odr unnamed_addr constant %eh.CatchableType { i32 16, i32 trunc (i64 sub nuw nsw (i64 ptrtoint (%rtti.TypeDescriptor19* @"??_R0?AVbad_alloc@std@@@8" to i64), i64 ptrtoint (i8* @__ImageBase to i64)) to i32), i32 0, i32 -1, i32 0, i32 24, i32 trunc (i64 sub nuw nsw (i64 ptrtoint (%"class.std::bad_alloc"* (%"class.std::bad_alloc"*, %"class.std::bad_alloc"*)* @"??0bad_alloc@std@@QEAA@AEBV01@@Z" to i64), i64 ptrtoint (i8* @__ImageBase to i64)) to i32) }, section ".xdata", comdat
@"??_R0?AVexception@std@@@8" = linkonce_odr global %rtti.TypeDescriptor19 { i8** @"??_7type_info@@6B@", i8* null, [20 x i8] c".?AVexception@std@@\00" }, comdat
@"_CT??_R0?AVexception@std@@@8??0exception@std@@QEAA@AEBV01@@Z24" = linkonce_odr unnamed_addr constant %eh.CatchableType { i32 0, i32 trunc (i64 sub nuw nsw (i64 ptrtoint (%rtti.TypeDescriptor19* @"??_R0?AVexception@std@@@8" to i64), i64 ptrtoint (i8* @__ImageBase to i64)) to i32), i32 0, i32 -1, i32 0, i32 24, i32 trunc (i64 sub nuw nsw (i64 ptrtoint (%"class.std::exception"* (%"class.std::exception"*, %"class.std::exception"*)* @"??0exception@std@@QEAA@AEBV01@@Z" to i64), i64 ptrtoint (i8* @__ImageBase to i64)) to i32) }, section ".xdata", comdat
@"_CTA3?AVbad_array_new_length@std@@" = linkonce_odr unnamed_addr constant %eh.CatchableTypeArray.3 { i32 3, [3 x i32] [i32 trunc (i64 sub nuw nsw (i64 ptrtoint (%eh.CatchableType* @"_CT??_R0?AVbad_array_new_length@std@@@8??0bad_array_new_length@std@@QEAA@AEBV01@@Z24" to i64), i64 ptrtoint (i8* @__ImageBase to i64)) to i32), i32 trunc (i64 sub nuw nsw (i64 ptrtoint (%eh.CatchableType* @"_CT??_R0?AVbad_alloc@std@@@8??0bad_alloc@std@@QEAA@AEBV01@@Z24" to i64), i64 ptrtoint (i8* @__ImageBase to i64)) to i32), i32 trunc (i64 sub nuw nsw (i64 ptrtoint (%eh.CatchableType* @"_CT??_R0?AVexception@std@@@8??0exception@std@@QEAA@AEBV01@@Z24" to i64), i64 ptrtoint (i8* @__ImageBase to i64)) to i32)] }, section ".xdata", comdat
@"_TI3?AVbad_array_new_length@std@@" = linkonce_odr unnamed_addr constant %eh.ThrowInfo { i32 0, i32 trunc (i64 sub nuw nsw (i64 ptrtoint (void (%"class.std::bad_array_new_length"*)* @"??1bad_array_new_length@std@@UEAA@XZ" to i64), i64 ptrtoint (i8* @__ImageBase to i64)) to i32), i32 0, i32 trunc (i64 sub nuw nsw (i64 ptrtoint (%eh.CatchableTypeArray.3* @"_CTA3?AVbad_array_new_length@std@@" to i64), i64 ptrtoint (i8* @__ImageBase to i64)) to i32) }, section ".xdata", comdat
@"??_C@_0BF@KINCDENJ@bad?5array?5new?5length?$AA@" = linkonce_odr dso_local unnamed_addr constant [21 x i8] c"bad array new length\00", comdat, align 1
@0 = private unnamed_addr constant { [3 x i8*] } { [3 x i8*] [i8* bitcast (%rtti.CompleteObjectLocator* @"??_R4bad_array_new_length@std@@6B@" to i8*), i8* bitcast (i8* (%"class.std::bad_array_new_length"*, i32)* @"??_Gbad_array_new_length@std@@UEAAPEAXI@Z" to i8*), i8* bitcast (i8* (%"class.std::exception"*)* @"?what@exception@std@@UEBAPEBDXZ" to i8*)] }, comdat($"??_7bad_array_new_length@std@@6B@")
@"??_R4bad_array_new_length@std@@6B@" = linkonce_odr constant %rtti.CompleteObjectLocator { i32 1, i32 0, i32 0, i32 trunc (i64 sub nuw nsw (i64 ptrtoint (%rtti.TypeDescriptor30* @"??_R0?AVbad_array_new_length@std@@@8" to i64), i64 ptrtoint (i8* @__ImageBase to i64)) to i32), i32 trunc (i64 sub nuw nsw (i64 ptrtoint (%rtti.ClassHierarchyDescriptor* @"??_R3bad_array_new_length@std@@8" to i64), i64 ptrtoint (i8* @__ImageBase to i64)) to i32), i32 trunc (i64 sub nuw nsw (i64 ptrtoint (%rtti.CompleteObjectLocator* @"??_R4bad_array_new_length@std@@6B@" to i64), i64 ptrtoint (i8* @__ImageBase to i64)) to i32) }, comdat
@"??_R3bad_array_new_length@std@@8" = linkonce_odr constant %rtti.ClassHierarchyDescriptor { i32 0, i32 0, i32 3, i32 trunc (i64 sub nuw nsw (i64 ptrtoint ([4 x i32]* @"??_R2bad_array_new_length@std@@8" to i64), i64 ptrtoint (i8* @__ImageBase to i64)) to i32) }, comdat
@"??_R2bad_array_new_length@std@@8" = linkonce_odr constant [4 x i32] [i32 trunc (i64 sub nuw nsw (i64 ptrtoint (%rtti.BaseClassDescriptor* @"??_R1A@?0A@EA@bad_array_new_length@std@@8" to i64), i64 ptrtoint (i8* @__ImageBase to i64)) to i32), i32 trunc (i64 sub nuw nsw (i64 ptrtoint (%rtti.BaseClassDescriptor* @"??_R1A@?0A@EA@bad_alloc@std@@8" to i64), i64 ptrtoint (i8* @__ImageBase to i64)) to i32), i32 trunc (i64 sub nuw nsw (i64 ptrtoint (%rtti.BaseClassDescriptor* @"??_R1A@?0A@EA@exception@std@@8" to i64), i64 ptrtoint (i8* @__ImageBase to i64)) to i32), i32 0], comdat
@"??_R1A@?0A@EA@bad_array_new_length@std@@8" = linkonce_odr constant %rtti.BaseClassDescriptor { i32 trunc (i64 sub nuw nsw (i64 ptrtoint (%rtti.TypeDescriptor30* @"??_R0?AVbad_array_new_length@std@@@8" to i64), i64 ptrtoint (i8* @__ImageBase to i64)) to i32), i32 2, i32 0, i32 -1, i32 0, i32 64, i32 trunc (i64 sub nuw nsw (i64 ptrtoint (%rtti.ClassHierarchyDescriptor* @"??_R3bad_array_new_length@std@@8" to i64), i64 ptrtoint (i8* @__ImageBase to i64)) to i32) }, comdat
@"??_R1A@?0A@EA@bad_alloc@std@@8" = linkonce_odr constant %rtti.BaseClassDescriptor { i32 trunc (i64 sub nuw nsw (i64 ptrtoint (%rtti.TypeDescriptor19* @"??_R0?AVbad_alloc@std@@@8" to i64), i64 ptrtoint (i8* @__ImageBase to i64)) to i32), i32 1, i32 0, i32 -1, i32 0, i32 64, i32 trunc (i64 sub nuw nsw (i64 ptrtoint (%rtti.ClassHierarchyDescriptor* @"??_R3bad_alloc@std@@8" to i64), i64 ptrtoint (i8* @__ImageBase to i64)) to i32) }, comdat
@"??_R3bad_alloc@std@@8" = linkonce_odr constant %rtti.ClassHierarchyDescriptor { i32 0, i32 0, i32 2, i32 trunc (i64 sub nuw nsw (i64 ptrtoint ([3 x i32]* @"??_R2bad_alloc@std@@8" to i64), i64 ptrtoint (i8* @__ImageBase to i64)) to i32) }, comdat
@"??_R2bad_alloc@std@@8" = linkonce_odr constant [3 x i32] [i32 trunc (i64 sub nuw nsw (i64 ptrtoint (%rtti.BaseClassDescriptor* @"??_R1A@?0A@EA@bad_alloc@std@@8" to i64), i64 ptrtoint (i8* @__ImageBase to i64)) to i32), i32 trunc (i64 sub nuw nsw (i64 ptrtoint (%rtti.BaseClassDescriptor* @"??_R1A@?0A@EA@exception@std@@8" to i64), i64 ptrtoint (i8* @__ImageBase to i64)) to i32), i32 0], comdat
@"??_R1A@?0A@EA@exception@std@@8" = linkonce_odr constant %rtti.BaseClassDescriptor { i32 trunc (i64 sub nuw nsw (i64 ptrtoint (%rtti.TypeDescriptor19* @"??_R0?AVexception@std@@@8" to i64), i64 ptrtoint (i8* @__ImageBase to i64)) to i32), i32 0, i32 0, i32 -1, i32 0, i32 64, i32 trunc (i64 sub nuw nsw (i64 ptrtoint (%rtti.ClassHierarchyDescriptor* @"??_R3exception@std@@8" to i64), i64 ptrtoint (i8* @__ImageBase to i64)) to i32) }, comdat
@"??_R3exception@std@@8" = linkonce_odr constant %rtti.ClassHierarchyDescriptor { i32 0, i32 0, i32 1, i32 trunc (i64 sub nuw nsw (i64 ptrtoint ([2 x i32]* @"??_R2exception@std@@8" to i64), i64 ptrtoint (i8* @__ImageBase to i64)) to i32) }, comdat
@"??_R2exception@std@@8" = linkonce_odr constant [2 x i32] [i32 trunc (i64 sub nuw nsw (i64 ptrtoint (%rtti.BaseClassDescriptor* @"??_R1A@?0A@EA@exception@std@@8" to i64), i64 ptrtoint (i8* @__ImageBase to i64)) to i32), i32 0], comdat
@1 = private unnamed_addr constant { [3 x i8*] } { [3 x i8*] [i8* bitcast (%rtti.CompleteObjectLocator* @"??_R4bad_alloc@std@@6B@" to i8*), i8* bitcast (i8* (%"class.std::bad_alloc"*, i32)* @"??_Gbad_alloc@std@@UEAAPEAXI@Z" to i8*), i8* bitcast (i8* (%"class.std::exception"*)* @"?what@exception@std@@UEBAPEBDXZ" to i8*)] }, comdat($"??_7bad_alloc@std@@6B@")
@"??_R4bad_alloc@std@@6B@" = linkonce_odr constant %rtti.CompleteObjectLocator { i32 1, i32 0, i32 0, i32 trunc (i64 sub nuw nsw (i64 ptrtoint (%rtti.TypeDescriptor19* @"??_R0?AVbad_alloc@std@@@8" to i64), i64 ptrtoint (i8* @__ImageBase to i64)) to i32), i32 trunc (i64 sub nuw nsw (i64 ptrtoint (%rtti.ClassHierarchyDescriptor* @"??_R3bad_alloc@std@@8" to i64), i64 ptrtoint (i8* @__ImageBase to i64)) to i32), i32 trunc (i64 sub nuw nsw (i64 ptrtoint (%rtti.CompleteObjectLocator* @"??_R4bad_alloc@std@@6B@" to i64), i64 ptrtoint (i8* @__ImageBase to i64)) to i32) }, comdat
@2 = private unnamed_addr constant { [3 x i8*] } { [3 x i8*] [i8* bitcast (%rtti.CompleteObjectLocator* @"??_R4exception@std@@6B@" to i8*), i8* bitcast (i8* (%"class.std::exception"*, i32)* @"??_Gexception@std@@UEAAPEAXI@Z" to i8*), i8* bitcast (i8* (%"class.std::exception"*)* @"?what@exception@std@@UEBAPEBDXZ" to i8*)] }, comdat($"??_7exception@std@@6B@")
@"??_R4exception@std@@6B@" = linkonce_odr constant %rtti.CompleteObjectLocator { i32 1, i32 0, i32 0, i32 trunc (i64 sub nuw nsw (i64 ptrtoint (%rtti.TypeDescriptor19* @"??_R0?AVexception@std@@@8" to i64), i64 ptrtoint (i8* @__ImageBase to i64)) to i32), i32 trunc (i64 sub nuw nsw (i64 ptrtoint (%rtti.ClassHierarchyDescriptor* @"??_R3exception@std@@8" to i64), i64 ptrtoint (i8* @__ImageBase to i64)) to i32), i32 trunc (i64 sub nuw nsw (i64 ptrtoint (%rtti.CompleteObjectLocator* @"??_R4exception@std@@6B@" to i64), i64 ptrtoint (i8* @__ImageBase to i64)) to i32) }, comdat
@"??_C@_0BC@EOODALEL@Unknown?5exception?$AA@" = linkonce_odr dso_local unnamed_addr constant [18 x i8] c"Unknown exception\00", comdat, align 1
@"??_C@_0BF@PHHKMMFD@ios_base?3?3badbit?5set?$AA@" = linkonce_odr dso_local unnamed_addr constant [21 x i8] c"ios_base::badbit set\00", comdat, align 1
@"??_C@_0BG@FMKFHCIL@ios_base?3?3failbit?5set?$AA@" = linkonce_odr dso_local unnamed_addr constant [22 x i8] c"ios_base::failbit set\00", comdat, align 1
@"??_C@_0BF@OOHOMBOF@ios_base?3?3eofbit?5set?$AA@" = linkonce_odr dso_local unnamed_addr constant [21 x i8] c"ios_base::eofbit set\00", comdat, align 1
@"??_R0?AVfailure@ios_base@std@@@8" = linkonce_odr global %rtti.TypeDescriptor26 { i8** @"??_7type_info@@6B@", i8* null, [27 x i8] c".?AVfailure@ios_base@std@@\00" }, comdat
@"_CT??_R0?AVfailure@ios_base@std@@@8??0failure@ios_base@std@@QEAA@AEBV012@@Z40" = linkonce_odr unnamed_addr constant %eh.CatchableType { i32 0, i32 trunc (i64 sub nuw nsw (i64 ptrtoint (%rtti.TypeDescriptor26* @"??_R0?AVfailure@ios_base@std@@@8" to i64), i64 ptrtoint (i8* @__ImageBase to i64)) to i32), i32 0, i32 -1, i32 0, i32 40, i32 trunc (i64 sub nuw nsw (i64 ptrtoint (%"class.std::ios_base::failure"* (%"class.std::ios_base::failure"*, %"class.std::ios_base::failure"*)* @"??0failure@ios_base@std@@QEAA@AEBV012@@Z" to i64), i64 ptrtoint (i8* @__ImageBase to i64)) to i32) }, section ".xdata", comdat
@"??_R0?AVsystem_error@std@@@8" = linkonce_odr global %rtti.TypeDescriptor22 { i8** @"??_7type_info@@6B@", i8* null, [23 x i8] c".?AVsystem_error@std@@\00" }, comdat
@"_CT??_R0?AVsystem_error@std@@@8??0system_error@std@@QEAA@AEBV01@@Z40" = linkonce_odr unnamed_addr constant %eh.CatchableType { i32 0, i32 trunc (i64 sub nuw nsw (i64 ptrtoint (%rtti.TypeDescriptor22* @"??_R0?AVsystem_error@std@@@8" to i64), i64 ptrtoint (i8* @__ImageBase to i64)) to i32), i32 0, i32 -1, i32 0, i32 40, i32 trunc (i64 sub nuw nsw (i64 ptrtoint (%"class.std::system_error"* (%"class.std::system_error"*, %"class.std::system_error"*)* @"??0system_error@std@@QEAA@AEBV01@@Z" to i64), i64 ptrtoint (i8* @__ImageBase to i64)) to i32) }, section ".xdata", comdat
@"??_R0?AV_System_error@std@@@8" = linkonce_odr global %rtti.TypeDescriptor23 { i8** @"??_7type_info@@6B@", i8* null, [24 x i8] c".?AV_System_error@std@@\00" }, comdat
@"_CT??_R0?AV_System_error@std@@@8??0_System_error@std@@QEAA@AEBV01@@Z40" = linkonce_odr unnamed_addr constant %eh.CatchableType { i32 0, i32 trunc (i64 sub nuw nsw (i64 ptrtoint (%rtti.TypeDescriptor23* @"??_R0?AV_System_error@std@@@8" to i64), i64 ptrtoint (i8* @__ImageBase to i64)) to i32), i32 0, i32 -1, i32 0, i32 40, i32 trunc (i64 sub nuw nsw (i64 ptrtoint (%"class.std::_System_error"* (%"class.std::_System_error"*, %"class.std::_System_error"*)* @"??0_System_error@std@@QEAA@AEBV01@@Z" to i64), i64 ptrtoint (i8* @__ImageBase to i64)) to i32) }, section ".xdata", comdat
@"??_R0?AVruntime_error@std@@@8" = linkonce_odr global %rtti.TypeDescriptor23 { i8** @"??_7type_info@@6B@", i8* null, [24 x i8] c".?AVruntime_error@std@@\00" }, comdat
@"_CT??_R0?AVruntime_error@std@@@8??0runtime_error@std@@QEAA@AEBV01@@Z24" = linkonce_odr unnamed_addr constant %eh.CatchableType { i32 0, i32 trunc (i64 sub nuw nsw (i64 ptrtoint (%rtti.TypeDescriptor23* @"??_R0?AVruntime_error@std@@@8" to i64), i64 ptrtoint (i8* @__ImageBase to i64)) to i32), i32 0, i32 -1, i32 0, i32 24, i32 trunc (i64 sub nuw nsw (i64 ptrtoint (%"class.std::runtime_error"* (%"class.std::runtime_error"*, %"class.std::runtime_error"*)* @"??0runtime_error@std@@QEAA@AEBV01@@Z" to i64), i64 ptrtoint (i8* @__ImageBase to i64)) to i32) }, section ".xdata", comdat
@"_CTA5?AVfailure@ios_base@std@@" = linkonce_odr unnamed_addr constant %eh.CatchableTypeArray.5 { i32 5, [5 x i32] [i32 trunc (i64 sub nuw nsw (i64 ptrtoint (%eh.CatchableType* @"_CT??_R0?AVfailure@ios_base@std@@@8??0failure@ios_base@std@@QEAA@AEBV012@@Z40" to i64), i64 ptrtoint (i8* @__ImageBase to i64)) to i32), i32 trunc (i64 sub nuw nsw (i64 ptrtoint (%eh.CatchableType* @"_CT??_R0?AVsystem_error@std@@@8??0system_error@std@@QEAA@AEBV01@@Z40" to i64), i64 ptrtoint (i8* @__ImageBase to i64)) to i32), i32 trunc (i64 sub nuw nsw (i64 ptrtoint (%eh.CatchableType* @"_CT??_R0?AV_System_error@std@@@8??0_System_error@std@@QEAA@AEBV01@@Z40" to i64), i64 ptrtoint (i8* @__ImageBase to i64)) to i32), i32 trunc (i64 sub nuw nsw (i64 ptrtoint (%eh.CatchableType* @"_CT??_R0?AVruntime_error@std@@@8??0runtime_error@std@@QEAA@AEBV01@@Z24" to i64), i64 ptrtoint (i8* @__ImageBase to i64)) to i32), i32 trunc (i64 sub nuw nsw (i64 ptrtoint (%eh.CatchableType* @"_CT??_R0?AVexception@std@@@8??0exception@std@@QEAA@AEBV01@@Z24" to i64), i64 ptrtoint (i8* @__ImageBase to i64)) to i32)] }, section ".xdata", comdat
@"_TI5?AVfailure@ios_base@std@@" = linkonce_odr unnamed_addr constant %eh.ThrowInfo { i32 0, i32 trunc (i64 sub nuw nsw (i64 ptrtoint (void (%"class.std::ios_base::failure"*)* @"??1failure@ios_base@std@@UEAA@XZ" to i64), i64 ptrtoint (i8* @__ImageBase to i64)) to i32), i32 0, i32 trunc (i64 sub nuw nsw (i64 ptrtoint (%eh.CatchableTypeArray.5* @"_CTA5?AVfailure@ios_base@std@@" to i64), i64 ptrtoint (i8* @__ImageBase to i64)) to i32) }, section ".xdata", comdat
@"?_Static@?1???$_Immortalize_memcpy_image@V_Iostream_error_category2@std@@@std@@YAAEBV_Iostream_error_category2@1@XZ@4V21@A" = linkonce_odr dso_local global { i8**, i64 } { i8** @"??_7_Iostream_error_category2@std@@6B@", i64 5 }, comdat, align 8
@3 = private unnamed_addr constant { [7 x i8*] } { [7 x i8*] [i8* bitcast (%rtti.CompleteObjectLocator* @"??_R4_Iostream_error_category2@std@@6B@" to i8*), i8* bitcast (i8* (%"class.std::_Iostream_error_category2"*, i32)* @"??_G_Iostream_error_category2@std@@UEAAPEAXI@Z" to i8*), i8* bitcast (i8* (%"class.std::_Iostream_error_category2"*)* @"?name@_Iostream_error_category2@std@@UEBAPEBDXZ" to i8*), i8* bitcast (void (%"class.std::_Iostream_error_category2"*, %"class.std::basic_string"*, i32)* @"?message@_Iostream_error_category2@std@@UEBA?AV?$basic_string@DU?$char_traits@D@std@@V?$allocator@D@2@@2@H@Z" to i8*), i8* bitcast (void (%"class.std::error_category"*, %"class.std::error_condition"*, i32)* @"?default_error_condition@error_category@std@@UEBA?AVerror_condition@2@H@Z" to i8*), i8* bitcast (i1 (%"class.std::error_category"*, %"class.std::error_code"*, i32)* @"?equivalent@error_category@std@@UEBA_NAEBVerror_code@2@H@Z" to i8*), i8* bitcast (i1 (%"class.std::error_category"*, i32, %"class.std::error_condition"*)* @"?equivalent@error_category@std@@UEBA_NHAEBVerror_condition@2@@Z" to i8*)] }, comdat($"??_7_Iostream_error_category2@std@@6B@")
@"?$TSS0@?1???$_Immortalize_memcpy_image@V_Iostream_error_category2@std@@@std@@YAAEBV_Iostream_error_category2@0@XZ@4HA" = linkonce_odr global i32 0, comdat, align 4
@_Init_thread_epoch = external thread_local global i32, align 4
@"??_R4_Iostream_error_category2@std@@6B@" = linkonce_odr constant %rtti.CompleteObjectLocator { i32 1, i32 0, i32 0, i32 trunc (i64 sub nuw nsw (i64 ptrtoint (%rtti.TypeDescriptor35* @"??_R0?AV_Iostream_error_category2@std@@@8" to i64), i64 ptrtoint (i8* @__ImageBase to i64)) to i32), i32 trunc (i64 sub nuw nsw (i64 ptrtoint (%rtti.ClassHierarchyDescriptor* @"??_R3_Iostream_error_category2@std@@8" to i64), i64 ptrtoint (i8* @__ImageBase to i64)) to i32), i32 trunc (i64 sub nuw nsw (i64 ptrtoint (%rtti.CompleteObjectLocator* @"??_R4_Iostream_error_category2@std@@6B@" to i64), i64 ptrtoint (i8* @__ImageBase to i64)) to i32) }, comdat
@"??_R0?AV_Iostream_error_category2@std@@@8" = linkonce_odr global %rtti.TypeDescriptor35 { i8** @"??_7type_info@@6B@", i8* null, [36 x i8] c".?AV_Iostream_error_category2@std@@\00" }, comdat
@"??_R3_Iostream_error_category2@std@@8" = linkonce_odr constant %rtti.ClassHierarchyDescriptor { i32 0, i32 0, i32 2, i32 trunc (i64 sub nuw nsw (i64 ptrtoint ([3 x i32]* @"??_R2_Iostream_error_category2@std@@8" to i64), i64 ptrtoint (i8* @__ImageBase to i64)) to i32) }, comdat
@"??_R2_Iostream_error_category2@std@@8" = linkonce_odr constant [3 x i32] [i32 trunc (i64 sub nuw nsw (i64 ptrtoint (%rtti.BaseClassDescriptor* @"??_R1A@?0A@EA@_Iostream_error_category2@std@@8" to i64), i64 ptrtoint (i8* @__ImageBase to i64)) to i32), i32 trunc (i64 sub nuw nsw (i64 ptrtoint (%rtti.BaseClassDescriptor* @"??_R1A@?0A@EA@error_category@std@@8" to i64), i64 ptrtoint (i8* @__ImageBase to i64)) to i32), i32 0], comdat
@"??_R1A@?0A@EA@_Iostream_error_category2@std@@8" = linkonce_odr constant %rtti.BaseClassDescriptor { i32 trunc (i64 sub nuw nsw (i64 ptrtoint (%rtti.TypeDescriptor35* @"??_R0?AV_Iostream_error_category2@std@@@8" to i64), i64 ptrtoint (i8* @__ImageBase to i64)) to i32), i32 1, i32 0, i32 -1, i32 0, i32 64, i32 trunc (i64 sub nuw nsw (i64 ptrtoint (%rtti.ClassHierarchyDescriptor* @"??_R3_Iostream_error_category2@std@@8" to i64), i64 ptrtoint (i8* @__ImageBase to i64)) to i32) }, comdat
@"??_R1A@?0A@EA@error_category@std@@8" = linkonce_odr constant %rtti.BaseClassDescriptor { i32 trunc (i64 sub nuw nsw (i64 ptrtoint (%rtti.TypeDescriptor24* @"??_R0?AVerror_category@std@@@8" to i64), i64 ptrtoint (i8* @__ImageBase to i64)) to i32), i32 0, i32 0, i32 -1, i32 0, i32 64, i32 trunc (i64 sub nuw nsw (i64 ptrtoint (%rtti.ClassHierarchyDescriptor* @"??_R3error_category@std@@8" to i64), i64 ptrtoint (i8* @__ImageBase to i64)) to i32) }, comdat
@"??_R0?AVerror_category@std@@@8" = linkonce_odr global %rtti.TypeDescriptor24 { i8** @"??_7type_info@@6B@", i8* null, [25 x i8] c".?AVerror_category@std@@\00" }, comdat
@"??_R3error_category@std@@8" = linkonce_odr constant %rtti.ClassHierarchyDescriptor { i32 0, i32 0, i32 1, i32 trunc (i64 sub nuw nsw (i64 ptrtoint ([2 x i32]* @"??_R2error_category@std@@8" to i64), i64 ptrtoint (i8* @__ImageBase to i64)) to i32) }, comdat
@"??_R2error_category@std@@8" = linkonce_odr constant [2 x i32] [i32 trunc (i64 sub nuw nsw (i64 ptrtoint (%rtti.BaseClassDescriptor* @"??_R1A@?0A@EA@error_category@std@@8" to i64), i64 ptrtoint (i8* @__ImageBase to i64)) to i32), i32 0], comdat
@"??_C@_08LLGCOLLL@iostream?$AA@" = linkonce_odr dso_local unnamed_addr constant [9 x i8] c"iostream\00", comdat, align 1
@"?_Iostream_error@?4??message@_Iostream_error_category2@std@@UEBA?AV?$basic_string@DU?$char_traits@D@std@@V?$allocator@D@2@@3@H@Z@4QBDB" = linkonce_odr dso_local constant [22 x i8] c"iostream stream error\00", comdat, align 16
@4 = private unnamed_addr constant { [3 x i8*] } { [3 x i8*] [i8* bitcast (%rtti.CompleteObjectLocator* @"??_R4failure@ios_base@std@@6B@" to i8*), i8* bitcast (i8* (%"class.std::ios_base::failure"*, i32)* @"??_Gfailure@ios_base@std@@UEAAPEAXI@Z" to i8*), i8* bitcast (i8* (%"class.std::exception"*)* @"?what@exception@std@@UEBAPEBDXZ" to i8*)] }, comdat($"??_7failure@ios_base@std@@6B@")
@"??_R4failure@ios_base@std@@6B@" = linkonce_odr constant %rtti.CompleteObjectLocator { i32 1, i32 0, i32 0, i32 trunc (i64 sub nuw nsw (i64 ptrtoint (%rtti.TypeDescriptor26* @"??_R0?AVfailure@ios_base@std@@@8" to i64), i64 ptrtoint (i8* @__ImageBase to i64)) to i32), i32 trunc (i64 sub nuw nsw (i64 ptrtoint (%rtti.ClassHierarchyDescriptor* @"??_R3failure@ios_base@std@@8" to i64), i64 ptrtoint (i8* @__ImageBase to i64)) to i32), i32 trunc (i64 sub nuw nsw (i64 ptrtoint (%rtti.CompleteObjectLocator* @"??_R4failure@ios_base@std@@6B@" to i64), i64 ptrtoint (i8* @__ImageBase to i64)) to i32) }, comdat
@"??_R3failure@ios_base@std@@8" = linkonce_odr constant %rtti.ClassHierarchyDescriptor { i32 0, i32 0, i32 5, i32 trunc (i64 sub nuw nsw (i64 ptrtoint ([6 x i32]* @"??_R2failure@ios_base@std@@8" to i64), i64 ptrtoint (i8* @__ImageBase to i64)) to i32) }, comdat
@"??_R2failure@ios_base@std@@8" = linkonce_odr constant [6 x i32] [i32 trunc (i64 sub nuw nsw (i64 ptrtoint (%rtti.BaseClassDescriptor* @"??_R1A@?0A@EA@failure@ios_base@std@@8" to i64), i64 ptrtoint (i8* @__ImageBase to i64)) to i32), i32 trunc (i64 sub nuw nsw (i64 ptrtoint (%rtti.BaseClassDescriptor* @"??_R1A@?0A@EA@system_error@std@@8" to i64), i64 ptrtoint (i8* @__ImageBase to i64)) to i32), i32 trunc (i64 sub nuw nsw (i64 ptrtoint (%rtti.BaseClassDescriptor* @"??_R1A@?0A@EA@_System_error@std@@8" to i64), i64 ptrtoint (i8* @__ImageBase to i64)) to i32), i32 trunc (i64 sub nuw nsw (i64 ptrtoint (%rtti.BaseClassDescriptor* @"??_R1A@?0A@EA@runtime_error@std@@8" to i64), i64 ptrtoint (i8* @__ImageBase to i64)) to i32), i32 trunc (i64 sub nuw nsw (i64 ptrtoint (%rtti.BaseClassDescriptor* @"??_R1A@?0A@EA@exception@std@@8" to i64), i64 ptrtoint (i8* @__ImageBase to i64)) to i32), i32 0], comdat
@"??_R1A@?0A@EA@failure@ios_base@std@@8" = linkonce_odr constant %rtti.BaseClassDescriptor { i32 trunc (i64 sub nuw nsw (i64 ptrtoint (%rtti.TypeDescriptor26* @"??_R0?AVfailure@ios_base@std@@@8" to i64), i64 ptrtoint (i8* @__ImageBase to i64)) to i32), i32 4, i32 0, i32 -1, i32 0, i32 64, i32 trunc (i64 sub nuw nsw (i64 ptrtoint (%rtti.ClassHierarchyDescriptor* @"??_R3failure@ios_base@std@@8" to i64), i64 ptrtoint (i8* @__ImageBase to i64)) to i32) }, comdat
@"??_R1A@?0A@EA@system_error@std@@8" = linkonce_odr constant %rtti.BaseClassDescriptor { i32 trunc (i64 sub nuw nsw (i64 ptrtoint (%rtti.TypeDescriptor22* @"??_R0?AVsystem_error@std@@@8" to i64), i64 ptrtoint (i8* @__ImageBase to i64)) to i32), i32 3, i32 0, i32 -1, i32 0, i32 64, i32 trunc (i64 sub nuw nsw (i64 ptrtoint (%rtti.ClassHierarchyDescriptor* @"??_R3system_error@std@@8" to i64), i64 ptrtoint (i8* @__ImageBase to i64)) to i32) }, comdat
@"??_R3system_error@std@@8" = linkonce_odr constant %rtti.ClassHierarchyDescriptor { i32 0, i32 0, i32 4, i32 trunc (i64 sub nuw nsw (i64 ptrtoint ([5 x i32]* @"??_R2system_error@std@@8" to i64), i64 ptrtoint (i8* @__ImageBase to i64)) to i32) }, comdat
@"??_R2system_error@std@@8" = linkonce_odr constant [5 x i32] [i32 trunc (i64 sub nuw nsw (i64 ptrtoint (%rtti.BaseClassDescriptor* @"??_R1A@?0A@EA@system_error@std@@8" to i64), i64 ptrtoint (i8* @__ImageBase to i64)) to i32), i32 trunc (i64 sub nuw nsw (i64 ptrtoint (%rtti.BaseClassDescriptor* @"??_R1A@?0A@EA@_System_error@std@@8" to i64), i64 ptrtoint (i8* @__ImageBase to i64)) to i32), i32 trunc (i64 sub nuw nsw (i64 ptrtoint (%rtti.BaseClassDescriptor* @"??_R1A@?0A@EA@runtime_error@std@@8" to i64), i64 ptrtoint (i8* @__ImageBase to i64)) to i32), i32 trunc (i64 sub nuw nsw (i64 ptrtoint (%rtti.BaseClassDescriptor* @"??_R1A@?0A@EA@exception@std@@8" to i64), i64 ptrtoint (i8* @__ImageBase to i64)) to i32), i32 0], comdat
@"??_R1A@?0A@EA@_System_error@std@@8" = linkonce_odr constant %rtti.BaseClassDescriptor { i32 trunc (i64 sub nuw nsw (i64 ptrtoint (%rtti.TypeDescriptor23* @"??_R0?AV_System_error@std@@@8" to i64), i64 ptrtoint (i8* @__ImageBase to i64)) to i32), i32 2, i32 0, i32 -1, i32 0, i32 64, i32 trunc (i64 sub nuw nsw (i64 ptrtoint (%rtti.ClassHierarchyDescriptor* @"??_R3_System_error@std@@8" to i64), i64 ptrtoint (i8* @__ImageBase to i64)) to i32) }, comdat
@"??_R3_System_error@std@@8" = linkonce_odr constant %rtti.ClassHierarchyDescriptor { i32 0, i32 0, i32 3, i32 trunc (i64 sub nuw nsw (i64 ptrtoint ([4 x i32]* @"??_R2_System_error@std@@8" to i64), i64 ptrtoint (i8* @__ImageBase to i64)) to i32) }, comdat
@"??_R2_System_error@std@@8" = linkonce_odr constant [4 x i32] [i32 trunc (i64 sub nuw nsw (i64 ptrtoint (%rtti.BaseClassDescriptor* @"??_R1A@?0A@EA@_System_error@std@@8" to i64), i64 ptrtoint (i8* @__ImageBase to i64)) to i32), i32 trunc (i64 sub nuw nsw (i64 ptrtoint (%rtti.BaseClassDescriptor* @"??_R1A@?0A@EA@runtime_error@std@@8" to i64), i64 ptrtoint (i8* @__ImageBase to i64)) to i32), i32 trunc (i64 sub nuw nsw (i64 ptrtoint (%rtti.BaseClassDescriptor* @"??_R1A@?0A@EA@exception@std@@8" to i64), i64 ptrtoint (i8* @__ImageBase to i64)) to i32), i32 0], comdat
@"??_R1A@?0A@EA@runtime_error@std@@8" = linkonce_odr constant %rtti.BaseClassDescriptor { i32 trunc (i64 sub nuw nsw (i64 ptrtoint (%rtti.TypeDescriptor23* @"??_R0?AVruntime_error@std@@@8" to i64), i64 ptrtoint (i8* @__ImageBase to i64)) to i32), i32 1, i32 0, i32 -1, i32 0, i32 64, i32 trunc (i64 sub nuw nsw (i64 ptrtoint (%rtti.ClassHierarchyDescriptor* @"??_R3runtime_error@std@@8" to i64), i64 ptrtoint (i8* @__ImageBase to i64)) to i32) }, comdat
@"??_R3runtime_error@std@@8" = linkonce_odr constant %rtti.ClassHierarchyDescriptor { i32 0, i32 0, i32 2, i32 trunc (i64 sub nuw nsw (i64 ptrtoint ([3 x i32]* @"??_R2runtime_error@std@@8" to i64), i64 ptrtoint (i8* @__ImageBase to i64)) to i32) }, comdat
@"??_R2runtime_error@std@@8" = linkonce_odr constant [3 x i32] [i32 trunc (i64 sub nuw nsw (i64 ptrtoint (%rtti.BaseClassDescriptor* @"??_R1A@?0A@EA@runtime_error@std@@8" to i64), i64 ptrtoint (i8* @__ImageBase to i64)) to i32), i32 trunc (i64 sub nuw nsw (i64 ptrtoint (%rtti.BaseClassDescriptor* @"??_R1A@?0A@EA@exception@std@@8" to i64), i64 ptrtoint (i8* @__ImageBase to i64)) to i32), i32 0], comdat
@5 = private unnamed_addr constant { [3 x i8*] } { [3 x i8*] [i8* bitcast (%rtti.CompleteObjectLocator* @"??_R4system_error@std@@6B@" to i8*), i8* bitcast (i8* (%"class.std::system_error"*, i32)* @"??_Gsystem_error@std@@UEAAPEAXI@Z" to i8*), i8* bitcast (i8* (%"class.std::exception"*)* @"?what@exception@std@@UEBAPEBDXZ" to i8*)] }, comdat($"??_7system_error@std@@6B@")
@"??_R4system_error@std@@6B@" = linkonce_odr constant %rtti.CompleteObjectLocator { i32 1, i32 0, i32 0, i32 trunc (i64 sub nuw nsw (i64 ptrtoint (%rtti.TypeDescriptor22* @"??_R0?AVsystem_error@std@@@8" to i64), i64 ptrtoint (i8* @__ImageBase to i64)) to i32), i32 trunc (i64 sub nuw nsw (i64 ptrtoint (%rtti.ClassHierarchyDescriptor* @"??_R3system_error@std@@8" to i64), i64 ptrtoint (i8* @__ImageBase to i64)) to i32), i32 trunc (i64 sub nuw nsw (i64 ptrtoint (%rtti.CompleteObjectLocator* @"??_R4system_error@std@@6B@" to i64), i64 ptrtoint (i8* @__ImageBase to i64)) to i32) }, comdat
@6 = private unnamed_addr constant { [3 x i8*] } { [3 x i8*] [i8* bitcast (%rtti.CompleteObjectLocator* @"??_R4_System_error@std@@6B@" to i8*), i8* bitcast (i8* (%"class.std::_System_error"*, i32)* @"??_G_System_error@std@@UEAAPEAXI@Z" to i8*), i8* bitcast (i8* (%"class.std::exception"*)* @"?what@exception@std@@UEBAPEBDXZ" to i8*)] }, comdat($"??_7_System_error@std@@6B@")
@"??_R4_System_error@std@@6B@" = linkonce_odr constant %rtti.CompleteObjectLocator { i32 1, i32 0, i32 0, i32 trunc (i64 sub nuw nsw (i64 ptrtoint (%rtti.TypeDescriptor23* @"??_R0?AV_System_error@std@@@8" to i64), i64 ptrtoint (i8* @__ImageBase to i64)) to i32), i32 trunc (i64 sub nuw nsw (i64 ptrtoint (%rtti.ClassHierarchyDescriptor* @"??_R3_System_error@std@@8" to i64), i64 ptrtoint (i8* @__ImageBase to i64)) to i32), i32 trunc (i64 sub nuw nsw (i64 ptrtoint (%rtti.CompleteObjectLocator* @"??_R4_System_error@std@@6B@" to i64), i64 ptrtoint (i8* @__ImageBase to i64)) to i32) }, comdat
@"??_C@_02LMMGGCAJ@?3?5?$AA@" = linkonce_odr dso_local unnamed_addr constant [3 x i8] c": \00", comdat, align 1
@7 = private unnamed_addr constant { [3 x i8*] } { [3 x i8*] [i8* bitcast (%rtti.CompleteObjectLocator* @"??_R4runtime_error@std@@6B@" to i8*), i8* bitcast (i8* (%"class.std::runtime_error"*, i32)* @"??_Gruntime_error@std@@UEAAPEAXI@Z" to i8*), i8* bitcast (i8* (%"class.std::exception"*)* @"?what@exception@std@@UEBAPEBDXZ" to i8*)] }, comdat($"??_7runtime_error@std@@6B@")
@"??_R4runtime_error@std@@6B@" = linkonce_odr constant %rtti.CompleteObjectLocator { i32 1, i32 0, i32 0, i32 trunc (i64 sub nuw nsw (i64 ptrtoint (%rtti.TypeDescriptor23* @"??_R0?AVruntime_error@std@@@8" to i64), i64 ptrtoint (i8* @__ImageBase to i64)) to i32), i32 trunc (i64 sub nuw nsw (i64 ptrtoint (%rtti.ClassHierarchyDescriptor* @"??_R3runtime_error@std@@8" to i64), i64 ptrtoint (i8* @__ImageBase to i64)) to i32), i32 trunc (i64 sub nuw nsw (i64 ptrtoint (%rtti.CompleteObjectLocator* @"??_R4runtime_error@std@@6B@" to i64), i64 ptrtoint (i8* @__ImageBase to i64)) to i32) }, comdat
@"?_Psave@?$_Facetptr@V?$ctype@D@std@@@std@@2PEBVfacet@locale@2@EB" = linkonce_odr dso_local global %"class.std::locale::facet"* null, comdat, align 8
@"?id@?$ctype@D@std@@2V0locale@2@A" = external dso_local global %"class.std::locale::id", align 8
@"?_Id_cnt@id@locale@std@@0HA" = external dso_local global i32, align 4
@"??_C@_00CNPNBAHC@?$AA@" = linkonce_odr dso_local unnamed_addr constant [1 x i8] zeroinitializer, comdat, align 1
@"??_C@_0BA@ELKIONDK@bad?5locale?5name?$AA@" = linkonce_odr dso_local unnamed_addr constant [16 x i8] c"bad locale name\00", comdat, align 1
@8 = private unnamed_addr constant { [12 x i8*] } { [12 x i8*] [i8* bitcast (%rtti.CompleteObjectLocator* @"??_R4?$ctype@D@std@@6B@" to i8*), i8* bitcast (i8* (%"class.std::ctype"*, i32)* @"??_G?$ctype@D@std@@MEAAPEAXI@Z" to i8*), i8* bitcast (void (%"class.std::locale::facet"*)* @"?_Incref@facet@locale@std@@UEAAXXZ" to i8*), i8* bitcast (%"class.std::_Facet_base"* (%"class.std::locale::facet"*)* @"?_Decref@facet@locale@std@@UEAAPEAV_Facet_base@3@XZ" to i8*), i8* bitcast (i8* (%"class.std::ctype"*, i8*, i8*)* @"?do_tolower@?$ctype@D@std@@MEBAPEBDPEADPEBD@Z" to i8*), i8* bitcast (i8 (%"class.std::ctype"*, i8)* @"?do_tolower@?$ctype@D@std@@MEBADD@Z" to i8*), i8* bitcast (i8* (%"class.std::ctype"*, i8*, i8*)* @"?do_toupper@?$ctype@D@std@@MEBAPEBDPEADPEBD@Z" to i8*), i8* bitcast (i8 (%"class.std::ctype"*, i8)* @"?do_toupper@?$ctype@D@std@@MEBADD@Z" to i8*), i8* bitcast (i8* (%"class.std::ctype"*, i8*, i8*, i8*)* @"?do_widen@?$ctype@D@std@@MEBAPEBDPEBD0PEAD@Z" to i8*), i8* bitcast (i8 (%"class.std::ctype"*, i8)* @"?do_widen@?$ctype@D@std@@MEBADD@Z" to i8*), i8* bitcast (i8* (%"class.std::ctype"*, i8*, i8*, i8, i8*)* @"?do_narrow@?$ctype@D@std@@MEBAPEBDPEBD0DPEAD@Z" to i8*), i8* bitcast (i8 (%"class.std::ctype"*, i8, i8)* @"?do_narrow@?$ctype@D@std@@MEBADDD@Z" to i8*)] }, comdat($"??_7?$ctype@D@std@@6B@")
@"??_R4?$ctype@D@std@@6B@" = linkonce_odr constant %rtti.CompleteObjectLocator { i32 1, i32 0, i32 0, i32 trunc (i64 sub nuw nsw (i64 ptrtoint (%rtti.TypeDescriptor19* @"??_R0?AV?$ctype@D@std@@@8" to i64), i64 ptrtoint (i8* @__ImageBase to i64)) to i32), i32 trunc (i64 sub nuw nsw (i64 ptrtoint (%rtti.ClassHierarchyDescriptor* @"??_R3?$ctype@D@std@@8" to i64), i64 ptrtoint (i8* @__ImageBase to i64)) to i32), i32 trunc (i64 sub nuw nsw (i64 ptrtoint (%rtti.CompleteObjectLocator* @"??_R4?$ctype@D@std@@6B@" to i64), i64 ptrtoint (i8* @__ImageBase to i64)) to i32) }, comdat
@"??_R0?AV?$ctype@D@std@@@8" = linkonce_odr global %rtti.TypeDescriptor19 { i8** @"??_7type_info@@6B@", i8* null, [20 x i8] c".?AV?$ctype@D@std@@\00" }, comdat
@"??_R3?$ctype@D@std@@8" = linkonce_odr constant %rtti.ClassHierarchyDescriptor { i32 0, i32 1, i32 5, i32 trunc (i64 sub nuw nsw (i64 ptrtoint ([6 x i32]* @"??_R2?$ctype@D@std@@8" to i64), i64 ptrtoint (i8* @__ImageBase to i64)) to i32) }, comdat
@"??_R2?$ctype@D@std@@8" = linkonce_odr constant [6 x i32] [i32 trunc (i64 sub nuw nsw (i64 ptrtoint (%rtti.BaseClassDescriptor* @"??_R1A@?0A@EA@?$ctype@D@std@@8" to i64), i64 ptrtoint (i8* @__ImageBase to i64)) to i32), i32 trunc (i64 sub nuw nsw (i64 ptrtoint (%rtti.BaseClassDescriptor* @"??_R1A@?0A@EA@ctype_base@std@@8" to i64), i64 ptrtoint (i8* @__ImageBase to i64)) to i32), i32 trunc (i64 sub nuw nsw (i64 ptrtoint (%rtti.BaseClassDescriptor* @"??_R1A@?0A@EA@facet@locale@std@@8" to i64), i64 ptrtoint (i8* @__ImageBase to i64)) to i32), i32 trunc (i64 sub nuw nsw (i64 ptrtoint (%rtti.BaseClassDescriptor* @"??_R1A@?0A@EA@_Facet_base@std@@8" to i64), i64 ptrtoint (i8* @__ImageBase to i64)) to i32), i32 trunc (i64 sub nuw nsw (i64 ptrtoint (%rtti.BaseClassDescriptor* @"??_R17?0A@EA@_Crt_new_delete@std@@8" to i64), i64 ptrtoint (i8* @__ImageBase to i64)) to i32), i32 0], comdat
@"??_R1A@?0A@EA@?$ctype@D@std@@8" = linkonce_odr constant %rtti.BaseClassDescriptor { i32 trunc (i64 sub nuw nsw (i64 ptrtoint (%rtti.TypeDescriptor19* @"??_R0?AV?$ctype@D@std@@@8" to i64), i64 ptrtoint (i8* @__ImageBase to i64)) to i32), i32 4, i32 0, i32 -1, i32 0, i32 64, i32 trunc (i64 sub nuw nsw (i64 ptrtoint (%rtti.ClassHierarchyDescriptor* @"??_R3?$ctype@D@std@@8" to i64), i64 ptrtoint (i8* @__ImageBase to i64)) to i32) }, comdat
@"??_R1A@?0A@EA@ctype_base@std@@8" = linkonce_odr constant %rtti.BaseClassDescriptor { i32 trunc (i64 sub nuw nsw (i64 ptrtoint (%rtti.TypeDescriptor20* @"??_R0?AUctype_base@std@@@8" to i64), i64 ptrtoint (i8* @__ImageBase to i64)) to i32), i32 3, i32 0, i32 -1, i32 0, i32 64, i32 trunc (i64 sub nuw nsw (i64 ptrtoint (%rtti.ClassHierarchyDescriptor* @"??_R3ctype_base@std@@8" to i64), i64 ptrtoint (i8* @__ImageBase to i64)) to i32) }, comdat
@"??_R0?AUctype_base@std@@@8" = linkonce_odr global %rtti.TypeDescriptor20 { i8** @"??_7type_info@@6B@", i8* null, [21 x i8] c".?AUctype_base@std@@\00" }, comdat
@"??_R3ctype_base@std@@8" = linkonce_odr constant %rtti.ClassHierarchyDescriptor { i32 0, i32 1, i32 4, i32 trunc (i64 sub nuw nsw (i64 ptrtoint ([5 x i32]* @"??_R2ctype_base@std@@8" to i64), i64 ptrtoint (i8* @__ImageBase to i64)) to i32) }, comdat
@"??_R2ctype_base@std@@8" = linkonce_odr constant [5 x i32] [i32 trunc (i64 sub nuw nsw (i64 ptrtoint (%rtti.BaseClassDescriptor* @"??_R1A@?0A@EA@ctype_base@std@@8" to i64), i64 ptrtoint (i8* @__ImageBase to i64)) to i32), i32 trunc (i64 sub nuw nsw (i64 ptrtoint (%rtti.BaseClassDescriptor* @"??_R1A@?0A@EA@facet@locale@std@@8" to i64), i64 ptrtoint (i8* @__ImageBase to i64)) to i32), i32 trunc (i64 sub nuw nsw (i64 ptrtoint (%rtti.BaseClassDescriptor* @"??_R1A@?0A@EA@_Facet_base@std@@8" to i64), i64 ptrtoint (i8* @__ImageBase to i64)) to i32), i32 trunc (i64 sub nuw nsw (i64 ptrtoint (%rtti.BaseClassDescriptor* @"??_R17?0A@EA@_Crt_new_delete@std@@8" to i64), i64 ptrtoint (i8* @__ImageBase to i64)) to i32), i32 0], comdat
@"??_R1A@?0A@EA@facet@locale@std@@8" = linkonce_odr constant %rtti.BaseClassDescriptor { i32 trunc (i64 sub nuw nsw (i64 ptrtoint (%rtti.TypeDescriptor22* @"??_R0?AVfacet@locale@std@@@8" to i64), i64 ptrtoint (i8* @__ImageBase to i64)) to i32), i32 2, i32 0, i32 -1, i32 0, i32 64, i32 trunc (i64 sub nuw nsw (i64 ptrtoint (%rtti.ClassHierarchyDescriptor* @"??_R3facet@locale@std@@8" to i64), i64 ptrtoint (i8* @__ImageBase to i64)) to i32) }, comdat
@"??_R0?AVfacet@locale@std@@@8" = linkonce_odr global %rtti.TypeDescriptor22 { i8** @"??_7type_info@@6B@", i8* null, [23 x i8] c".?AVfacet@locale@std@@\00" }, comdat
@"??_R3facet@locale@std@@8" = linkonce_odr constant %rtti.ClassHierarchyDescriptor { i32 0, i32 1, i32 3, i32 trunc (i64 sub nuw nsw (i64 ptrtoint ([4 x i32]* @"??_R2facet@locale@std@@8" to i64), i64 ptrtoint (i8* @__ImageBase to i64)) to i32) }, comdat
@"??_R2facet@locale@std@@8" = linkonce_odr constant [4 x i32] [i32 trunc (i64 sub nuw nsw (i64 ptrtoint (%rtti.BaseClassDescriptor* @"??_R1A@?0A@EA@facet@locale@std@@8" to i64), i64 ptrtoint (i8* @__ImageBase to i64)) to i32), i32 trunc (i64 sub nuw nsw (i64 ptrtoint (%rtti.BaseClassDescriptor* @"??_R1A@?0A@EA@_Facet_base@std@@8" to i64), i64 ptrtoint (i8* @__ImageBase to i64)) to i32), i32 trunc (i64 sub nuw nsw (i64 ptrtoint (%rtti.BaseClassDescriptor* @"??_R17?0A@EA@_Crt_new_delete@std@@8" to i64), i64 ptrtoint (i8* @__ImageBase to i64)) to i32), i32 0], comdat
@"??_R1A@?0A@EA@_Facet_base@std@@8" = linkonce_odr constant %rtti.BaseClassDescriptor { i32 trunc (i64 sub nuw nsw (i64 ptrtoint (%rtti.TypeDescriptor21* @"??_R0?AV_Facet_base@std@@@8" to i64), i64 ptrtoint (i8* @__ImageBase to i64)) to i32), i32 0, i32 0, i32 -1, i32 0, i32 64, i32 trunc (i64 sub nuw nsw (i64 ptrtoint (%rtti.ClassHierarchyDescriptor* @"??_R3_Facet_base@std@@8" to i64), i64 ptrtoint (i8* @__ImageBase to i64)) to i32) }, comdat
@"??_R0?AV_Facet_base@std@@@8" = linkonce_odr global %rtti.TypeDescriptor21 { i8** @"??_7type_info@@6B@", i8* null, [22 x i8] c".?AV_Facet_base@std@@\00" }, comdat
@"??_R3_Facet_base@std@@8" = linkonce_odr constant %rtti.ClassHierarchyDescriptor { i32 0, i32 0, i32 1, i32 trunc (i64 sub nuw nsw (i64 ptrtoint ([2 x i32]* @"??_R2_Facet_base@std@@8" to i64), i64 ptrtoint (i8* @__ImageBase to i64)) to i32) }, comdat
@"??_R2_Facet_base@std@@8" = linkonce_odr constant [2 x i32] [i32 trunc (i64 sub nuw nsw (i64 ptrtoint (%rtti.BaseClassDescriptor* @"??_R1A@?0A@EA@_Facet_base@std@@8" to i64), i64 ptrtoint (i8* @__ImageBase to i64)) to i32), i32 0], comdat
@"??_R17?0A@EA@_Crt_new_delete@std@@8" = linkonce_odr constant %rtti.BaseClassDescriptor { i32 trunc (i64 sub nuw nsw (i64 ptrtoint (%rtti.TypeDescriptor25* @"??_R0?AU_Crt_new_delete@std@@@8" to i64), i64 ptrtoint (i8* @__ImageBase to i64)) to i32), i32 0, i32 8, i32 -1, i32 0, i32 64, i32 trunc (i64 sub nuw nsw (i64 ptrtoint (%rtti.ClassHierarchyDescriptor* @"??_R3_Crt_new_delete@std@@8" to i64), i64 ptrtoint (i8* @__ImageBase to i64)) to i32) }, comdat
@"??_R0?AU_Crt_new_delete@std@@@8" = linkonce_odr global %rtti.TypeDescriptor25 { i8** @"??_7type_info@@6B@", i8* null, [26 x i8] c".?AU_Crt_new_delete@std@@\00" }, comdat
@"??_R3_Crt_new_delete@std@@8" = linkonce_odr constant %rtti.ClassHierarchyDescriptor { i32 0, i32 0, i32 1, i32 trunc (i64 sub nuw nsw (i64 ptrtoint ([2 x i32]* @"??_R2_Crt_new_delete@std@@8" to i64), i64 ptrtoint (i8* @__ImageBase to i64)) to i32) }, comdat
@"??_R2_Crt_new_delete@std@@8" = linkonce_odr constant [2 x i32] [i32 trunc (i64 sub nuw nsw (i64 ptrtoint (%rtti.BaseClassDescriptor* @"??_R1A@?0A@EA@_Crt_new_delete@std@@8" to i64), i64 ptrtoint (i8* @__ImageBase to i64)) to i32), i32 0], comdat
@"??_R1A@?0A@EA@_Crt_new_delete@std@@8" = linkonce_odr constant %rtti.BaseClassDescriptor { i32 trunc (i64 sub nuw nsw (i64 ptrtoint (%rtti.TypeDescriptor25* @"??_R0?AU_Crt_new_delete@std@@@8" to i64), i64 ptrtoint (i8* @__ImageBase to i64)) to i32), i32 0, i32 0, i32 -1, i32 0, i32 64, i32 trunc (i64 sub nuw nsw (i64 ptrtoint (%rtti.ClassHierarchyDescriptor* @"??_R3_Crt_new_delete@std@@8" to i64), i64 ptrtoint (i8* @__ImageBase to i64)) to i32) }, comdat
@9 = private unnamed_addr constant { [4 x i8*] } { [4 x i8*] [i8* bitcast (%rtti.CompleteObjectLocator* @"??_R4ctype_base@std@@6B@" to i8*), i8* bitcast (i8* (%"struct.std::ctype_base"*, i32)* @"??_Gctype_base@std@@UEAAPEAXI@Z" to i8*), i8* bitcast (void (%"class.std::locale::facet"*)* @"?_Incref@facet@locale@std@@UEAAXXZ" to i8*), i8* bitcast (%"class.std::_Facet_base"* (%"class.std::locale::facet"*)* @"?_Decref@facet@locale@std@@UEAAPEAV_Facet_base@3@XZ" to i8*)] }, comdat($"??_7ctype_base@std@@6B@")
@"??_R4ctype_base@std@@6B@" = linkonce_odr constant %rtti.CompleteObjectLocator { i32 1, i32 0, i32 0, i32 trunc (i64 sub nuw nsw (i64 ptrtoint (%rtti.TypeDescriptor20* @"??_R0?AUctype_base@std@@@8" to i64), i64 ptrtoint (i8* @__ImageBase to i64)) to i32), i32 trunc (i64 sub nuw nsw (i64 ptrtoint (%rtti.ClassHierarchyDescriptor* @"??_R3ctype_base@std@@8" to i64), i64 ptrtoint (i8* @__ImageBase to i64)) to i32), i32 trunc (i64 sub nuw nsw (i64 ptrtoint (%rtti.CompleteObjectLocator* @"??_R4ctype_base@std@@6B@" to i64), i64 ptrtoint (i8* @__ImageBase to i64)) to i32) }, comdat
@10 = private unnamed_addr constant { [4 x i8*] } { [4 x i8*] [i8* bitcast (%rtti.CompleteObjectLocator* @"??_R4facet@locale@std@@6B@" to i8*), i8* bitcast (i8* (%"class.std::locale::facet"*, i32)* @"??_Gfacet@locale@std@@MEAAPEAXI@Z" to i8*), i8* bitcast (void (%"class.std::locale::facet"*)* @"?_Incref@facet@locale@std@@UEAAXXZ" to i8*), i8* bitcast (%"class.std::_Facet_base"* (%"class.std::locale::facet"*)* @"?_Decref@facet@locale@std@@UEAAPEAV_Facet_base@3@XZ" to i8*)] }, comdat($"??_7facet@locale@std@@6B@")
@"??_R4facet@locale@std@@6B@" = linkonce_odr constant %rtti.CompleteObjectLocator { i32 1, i32 0, i32 0, i32 trunc (i64 sub nuw nsw (i64 ptrtoint (%rtti.TypeDescriptor22* @"??_R0?AVfacet@locale@std@@@8" to i64), i64 ptrtoint (i8* @__ImageBase to i64)) to i32), i32 trunc (i64 sub nuw nsw (i64 ptrtoint (%rtti.ClassHierarchyDescriptor* @"??_R3facet@locale@std@@8" to i64), i64 ptrtoint (i8* @__ImageBase to i64)) to i32), i32 trunc (i64 sub nuw nsw (i64 ptrtoint (%rtti.CompleteObjectLocator* @"??_R4facet@locale@std@@6B@" to i64), i64 ptrtoint (i8* @__ImageBase to i64)) to i32) }, comdat
@11 = private unnamed_addr constant { [4 x i8*] } { [4 x i8*] [i8* bitcast (%rtti.CompleteObjectLocator* @"??_R4_Facet_base@std@@6B@" to i8*), i8* bitcast (i8* (%"class.std::_Facet_base"*, i32)* @"??_G_Facet_base@std@@UEAAPEAXI@Z" to i8*), i8* bitcast (void ()* @_purecall to i8*), i8* bitcast (void ()* @_purecall to i8*)] }, comdat($"??_7_Facet_base@std@@6B@")
@"??_R4_Facet_base@std@@6B@" = linkonce_odr constant %rtti.CompleteObjectLocator { i32 1, i32 0, i32 0, i32 trunc (i64 sub nuw nsw (i64 ptrtoint (%rtti.TypeDescriptor21* @"??_R0?AV_Facet_base@std@@@8" to i64), i64 ptrtoint (i8* @__ImageBase to i64)) to i32), i32 trunc (i64 sub nuw nsw (i64 ptrtoint (%rtti.ClassHierarchyDescriptor* @"??_R3_Facet_base@std@@8" to i64), i64 ptrtoint (i8* @__ImageBase to i64)) to i32), i32 trunc (i64 sub nuw nsw (i64 ptrtoint (%rtti.CompleteObjectLocator* @"??_R4_Facet_base@std@@6B@" to i64), i64 ptrtoint (i8* @__ImageBase to i64)) to i32) }, comdat
@"??_R0?AVbad_cast@std@@@8" = linkonce_odr global %rtti.TypeDescriptor18 { i8** @"??_7type_info@@6B@", i8* null, [19 x i8] c".?AVbad_cast@std@@\00" }, comdat
@"_CT??_R0?AVbad_cast@std@@@8??0bad_cast@std@@QEAA@AEBV01@@Z24" = linkonce_odr unnamed_addr constant %eh.CatchableType { i32 0, i32 trunc (i64 sub nuw nsw (i64 ptrtoint (%rtti.TypeDescriptor18* @"??_R0?AVbad_cast@std@@@8" to i64), i64 ptrtoint (i8* @__ImageBase to i64)) to i32), i32 0, i32 -1, i32 0, i32 24, i32 trunc (i64 sub nuw nsw (i64 ptrtoint (%"class.std::bad_cast"* (%"class.std::bad_cast"*, %"class.std::bad_cast"*)* @"??0bad_cast@std@@QEAA@AEBV01@@Z" to i64), i64 ptrtoint (i8* @__ImageBase to i64)) to i32) }, section ".xdata", comdat
@"_CTA2?AVbad_cast@std@@" = linkonce_odr unnamed_addr constant %eh.CatchableTypeArray.2 { i32 2, [2 x i32] [i32 trunc (i64 sub nuw nsw (i64 ptrtoint (%eh.CatchableType* @"_CT??_R0?AVbad_cast@std@@@8??0bad_cast@std@@QEAA@AEBV01@@Z24" to i64), i64 ptrtoint (i8* @__ImageBase to i64)) to i32), i32 trunc (i64 sub nuw nsw (i64 ptrtoint (%eh.CatchableType* @"_CT??_R0?AVexception@std@@@8??0exception@std@@QEAA@AEBV01@@Z24" to i64), i64 ptrtoint (i8* @__ImageBase to i64)) to i32)] }, section ".xdata", comdat
@"_TI2?AVbad_cast@std@@" = linkonce_odr unnamed_addr constant %eh.ThrowInfo { i32 0, i32 trunc (i64 sub nuw nsw (i64 ptrtoint (void (%"class.std::bad_cast"*)* @"??1bad_cast@std@@UEAA@XZ" to i64), i64 ptrtoint (i8* @__ImageBase to i64)) to i32), i32 0, i32 trunc (i64 sub nuw nsw (i64 ptrtoint (%eh.CatchableTypeArray.2* @"_CTA2?AVbad_cast@std@@" to i64), i64 ptrtoint (i8* @__ImageBase to i64)) to i32) }, section ".xdata", comdat
@"??_C@_08EPJLHIJG@bad?5cast?$AA@" = linkonce_odr dso_local unnamed_addr constant [9 x i8] c"bad cast\00", comdat, align 1
@12 = private unnamed_addr constant { [3 x i8*] } { [3 x i8*] [i8* bitcast (%rtti.CompleteObjectLocator* @"??_R4bad_cast@std@@6B@" to i8*), i8* bitcast (i8* (%"class.std::bad_cast"*, i32)* @"??_Gbad_cast@std@@UEAAPEAXI@Z" to i8*), i8* bitcast (i8* (%"class.std::exception"*)* @"?what@exception@std@@UEBAPEBDXZ" to i8*)] }, comdat($"??_7bad_cast@std@@6B@")
@"??_R4bad_cast@std@@6B@" = linkonce_odr constant %rtti.CompleteObjectLocator { i32 1, i32 0, i32 0, i32 trunc (i64 sub nuw nsw (i64 ptrtoint (%rtti.TypeDescriptor18* @"??_R0?AVbad_cast@std@@@8" to i64), i64 ptrtoint (i8* @__ImageBase to i64)) to i32), i32 trunc (i64 sub nuw nsw (i64 ptrtoint (%rtti.ClassHierarchyDescriptor* @"??_R3bad_cast@std@@8" to i64), i64 ptrtoint (i8* @__ImageBase to i64)) to i32), i32 trunc (i64 sub nuw nsw (i64 ptrtoint (%rtti.CompleteObjectLocator* @"??_R4bad_cast@std@@6B@" to i64), i64 ptrtoint (i8* @__ImageBase to i64)) to i32) }, comdat
@"??_R3bad_cast@std@@8" = linkonce_odr constant %rtti.ClassHierarchyDescriptor { i32 0, i32 0, i32 2, i32 trunc (i64 sub nuw nsw (i64 ptrtoint ([3 x i32]* @"??_R2bad_cast@std@@8" to i64), i64 ptrtoint (i8* @__ImageBase to i64)) to i32) }, comdat
@"??_R2bad_cast@std@@8" = linkonce_odr constant [3 x i32] [i32 trunc (i64 sub nuw nsw (i64 ptrtoint (%rtti.BaseClassDescriptor* @"??_R1A@?0A@EA@bad_cast@std@@8" to i64), i64 ptrtoint (i8* @__ImageBase to i64)) to i32), i32 trunc (i64 sub nuw nsw (i64 ptrtoint (%rtti.BaseClassDescriptor* @"??_R1A@?0A@EA@exception@std@@8" to i64), i64 ptrtoint (i8* @__ImageBase to i64)) to i32), i32 0], comdat
@"??_R1A@?0A@EA@bad_cast@std@@8" = linkonce_odr constant %rtti.BaseClassDescriptor { i32 trunc (i64 sub nuw nsw (i64 ptrtoint (%rtti.TypeDescriptor18* @"??_R0?AVbad_cast@std@@@8" to i64), i64 ptrtoint (i8* @__ImageBase to i64)) to i32), i32 1, i32 0, i32 -1, i32 0, i32 64, i32 trunc (i64 sub nuw nsw (i64 ptrtoint (%rtti.ClassHierarchyDescriptor* @"??_R3bad_cast@std@@8" to i64), i64 ptrtoint (i8* @__ImageBase to i64)) to i32) }, comdat
@llvm.global_ctors = appending global [1 x { i32, void ()*, i8* }] [{ i32, void ()*, i8* } { i32 65535, void ()* @_GLOBAL__sub_I_thread_test.cpp, i8* null }]

@"??_7bad_array_new_length@std@@6B@" = unnamed_addr alias i8*, getelementptr inbounds ({ [3 x i8*] }, { [3 x i8*] }* @0, i32 0, i32 0, i32 1)
@"??_7bad_alloc@std@@6B@" = unnamed_addr alias i8*, getelementptr inbounds ({ [3 x i8*] }, { [3 x i8*] }* @1, i32 0, i32 0, i32 1)
@"??_7exception@std@@6B@" = unnamed_addr alias i8*, getelementptr inbounds ({ [3 x i8*] }, { [3 x i8*] }* @2, i32 0, i32 0, i32 1)
@"??_7_Iostream_error_category2@std@@6B@" = unnamed_addr alias i8*, getelementptr inbounds ({ [7 x i8*] }, { [7 x i8*] }* @3, i32 0, i32 0, i32 1)
@"??_7failure@ios_base@std@@6B@" = unnamed_addr alias i8*, getelementptr inbounds ({ [3 x i8*] }, { [3 x i8*] }* @4, i32 0, i32 0, i32 1)
@"??_7system_error@std@@6B@" = unnamed_addr alias i8*, getelementptr inbounds ({ [3 x i8*] }, { [3 x i8*] }* @5, i32 0, i32 0, i32 1)
@"??_7_System_error@std@@6B@" = unnamed_addr alias i8*, getelementptr inbounds ({ [3 x i8*] }, { [3 x i8*] }* @6, i32 0, i32 0, i32 1)
@"??_7runtime_error@std@@6B@" = unnamed_addr alias i8*, getelementptr inbounds ({ [3 x i8*] }, { [3 x i8*] }* @7, i32 0, i32 0, i32 1)
@"??_7?$ctype@D@std@@6B@" = unnamed_addr alias i8*, getelementptr inbounds ({ [12 x i8*] }, { [12 x i8*] }* @8, i32 0, i32 0, i32 1)
@"??_7ctype_base@std@@6B@" = unnamed_addr alias i8*, getelementptr inbounds ({ [4 x i8*] }, { [4 x i8*] }* @9, i32 0, i32 0, i32 1)
@"??_7facet@locale@std@@6B@" = unnamed_addr alias i8*, getelementptr inbounds ({ [4 x i8*] }, { [4 x i8*] }* @10, i32 0, i32 0, i32 1)
@"??_7_Facet_base@std@@6B@" = unnamed_addr alias i8*, getelementptr inbounds ({ [4 x i8*] }, { [4 x i8*] }* @11, i32 0, i32 0, i32 1)
@"??_7bad_cast@std@@6B@" = unnamed_addr alias i8*, getelementptr inbounds ({ [3 x i8*] }, { [3 x i8*] }* @12, i32 0, i32 0, i32 1)

; Function Attrs: noinline uwtable
define internal void @"??__Ehello@@YAXXZ"() #0 {
  %1 = call %"class.std::basic_string"* @"??0?$basic_string@DU?$char_traits@D@std@@V?$allocator@D@2@@std@@QEAA@QEBD@Z"(%"class.std::basic_string"* @"?hello@@3V?$basic_string@DU?$char_traits@D@std@@V?$allocator@D@2@@std@@A", i8* getelementptr inbounds ([6 x i8], [6 x i8]* @"??_C@_05COLMCDPH@Hello?$AA@", i64 0, i64 0))
  %2 = call i32 @atexit(void ()* @"??__Fhello@@YAXXZ") #3
  ret void
}

; Function Attrs: noinline optnone uwtable
define linkonce_odr dso_local %"class.std::basic_string"* @"??0?$basic_string@DU?$char_traits@D@std@@V?$allocator@D@2@@std@@QEAA@QEBD@Z"(%"class.std::basic_string"* returned %0, i8* %1) unnamed_addr #1 comdat align 2 personality i8* bitcast (i32 (...)* @__CxxFrameHandler3 to i8*) {
  %3 = alloca i8*, align 8
  %4 = alloca %"class.std::basic_string"*, align 8
  %5 = alloca %"struct.std::_Zero_then_variadic_args_t", align 1
  %6 = alloca %"struct.std::_Fake_allocator"*, align 8
  %7 = alloca %"struct.std::_Fake_allocator", align 1
  %8 = alloca %"struct.std::_Fake_proxy_ptr_impl", align 1
  store i8* %1, i8** %3, align 8
  store %"class.std::basic_string"* %0, %"class.std::basic_string"** %4, align 8
  %9 = load %"class.std::basic_string"*, %"class.std::basic_string"** %4, align 8
  %10 = getelementptr inbounds %"class.std::basic_string", %"class.std::basic_string"* %9, i32 0, i32 0
  %11 = getelementptr inbounds %"struct.std::_Zero_then_variadic_args_t", %"struct.std::_Zero_then_variadic_args_t"* %5, i32 0, i32 0
  %12 = load i8, i8* %11, align 1
  %13 = call %"class.std::_Compressed_pair"* @"??$?0$$V@?$_Compressed_pair@V?$allocator@D@std@@V?$_String_val@U?$_Simple_types@D@std@@@2@$00@std@@QEAA@U_Zero_then_variadic_args_t@1@@Z"(%"class.std::_Compressed_pair"* %10, i8 %12) #3
  store %"struct.std::_Fake_allocator"* %7, %"struct.std::_Fake_allocator"** %6, align 8
  %14 = getelementptr inbounds %"class.std::basic_string", %"class.std::basic_string"* %9, i32 0, i32 0
  %15 = getelementptr inbounds %"class.std::_Compressed_pair", %"class.std::_Compressed_pair"* %14, i32 0, i32 0
  %16 = bitcast %"class.std::_String_val"* %15 to %"struct.std::_Container_base0"*
  %17 = load %"struct.std::_Fake_allocator"*, %"struct.std::_Fake_allocator"** %6, align 8
  %18 = call %"struct.std::_Fake_proxy_ptr_impl"* @"??0_Fake_proxy_ptr_impl@std@@QEAA@AEBU_Fake_allocator@1@AEBU_Container_base0@1@@Z"(%"struct.std::_Fake_proxy_ptr_impl"* %8, %"struct.std::_Fake_allocator"* nonnull align 1 dereferenceable(1) %17, %"struct.std::_Container_base0"* nonnull align 1 dereferenceable(1) %16) #3
  call void @"?_Tidy_init@?$basic_string@DU?$char_traits@D@std@@V?$allocator@D@2@@std@@AEAAXXZ"(%"class.std::basic_string"* %9) #3
  %19 = load i8*, i8** %3, align 8
  %20 = invoke nonnull align 8 dereferenceable(32) %"class.std::basic_string"* @"?assign@?$basic_string@DU?$char_traits@D@std@@V?$allocator@D@2@@std@@QEAAAEAV12@QEBD@Z"(%"class.std::basic_string"* %9, i8* %19)
          to label %21 unwind label %22

21:                                               ; preds = %2
  call void @"?_Release@_Fake_proxy_ptr_impl@std@@QEAAXXZ"(%"struct.std::_Fake_proxy_ptr_impl"* %8) #3
  ret %"class.std::basic_string"* %9

22:                                               ; preds = %2
  %23 = cleanuppad within none []
  call void @"??1?$_Compressed_pair@V?$allocator@D@std@@V?$_String_val@U?$_Simple_types@D@std@@@2@$00@std@@QEAA@XZ"(%"class.std::_Compressed_pair"* %10) #3 [ "funclet"(token %23) ]
  cleanupret from %23 unwind to caller
}

; Function Attrs: noinline nounwind optnone uwtable
define linkonce_odr dso_local void @"??1?$basic_string@DU?$char_traits@D@std@@V?$allocator@D@2@@std@@QEAA@XZ"(%"class.std::basic_string"* %0) unnamed_addr #2 comdat align 2 {
  %2 = alloca %"class.std::basic_string"*, align 8
  store %"class.std::basic_string"* %0, %"class.std::basic_string"** %2, align 8
  %3 = load %"class.std::basic_string"*, %"class.std::basic_string"** %2, align 8
  call void @"?_Tidy_deallocate@?$basic_string@DU?$char_traits@D@std@@V?$allocator@D@2@@std@@AEAAXXZ"(%"class.std::basic_string"* %3) #3
  %4 = getelementptr inbounds %"class.std::basic_string", %"class.std::basic_string"* %3, i32 0, i32 0
  call void @"??1?$_Compressed_pair@V?$allocator@D@std@@V?$_String_val@U?$_Simple_types@D@std@@@2@$00@std@@QEAA@XZ"(%"class.std::_Compressed_pair"* %4) #3
  ret void
}

; Function Attrs: noinline uwtable
define internal void @"??__Fhello@@YAXXZ"() #0 {
  call void @"??1?$basic_string@DU?$char_traits@D@std@@V?$allocator@D@2@@std@@QEAA@XZ"(%"class.std::basic_string"* @"?hello@@3V?$basic_string@DU?$char_traits@D@std@@V?$allocator@D@2@@std@@A")
  ret void
}

; Function Attrs: nounwind
declare dso_local i32 @atexit(void ()*) #3

; Function Attrs: noinline optnone uwtable
define dso_local void @"?task1@@YAXV?$basic_string@DU?$char_traits@D@std@@V?$allocator@D@2@@std@@@Z"(%"class.std::basic_string"* %0) #1 personality i8* bitcast (i32 (...)* @__CxxFrameHandler3 to i8*) {
  %2 = invoke nonnull align 8 dereferenceable(8) %"class.std::basic_ostream"* @"??$?6U?$char_traits@D@std@@@std@@YAAEAV?$basic_ostream@DU?$char_traits@D@std@@@0@AEAV10@PEBD@Z"(%"class.std::basic_ostream"* nonnull align 8 dereferenceable(8) @"?cout@std@@3V?$basic_ostream@DU?$char_traits@D@std@@@1@A", i8* getelementptr inbounds ([13 x i8], [13 x i8]* @"??_C@_0N@JINCCNNL@task1?5says?3?5?$AA@", i64 0, i64 0))
          to label %3 unwind label %8

3:                                                ; preds = %1
  %4 = invoke nonnull align 8 dereferenceable(8) %"class.std::basic_ostream"* @"??$?6DU?$char_traits@D@std@@V?$allocator@D@1@@std@@YAAEAV?$basic_ostream@DU?$char_traits@D@std@@@0@AEAV10@AEBV?$basic_string@DU?$char_traits@D@std@@V?$allocator@D@2@@0@@Z"(%"class.std::basic_ostream"* nonnull align 8 dereferenceable(8) %2, %"class.std::basic_string"* nonnull align 8 dereferenceable(32) %0)
          to label %5 unwind label %8

5:                                                ; preds = %3
  %6 = invoke nonnull align 8 dereferenceable(8) %"class.std::basic_ostream"* @"??6?$basic_ostream@DU?$char_traits@D@std@@@std@@QEAAAEAV01@P6AAEAV01@AEAV01@@Z@Z"(%"class.std::basic_ostream"* %4, %"class.std::basic_ostream"* (%"class.std::basic_ostream"*)* @"??$endl@DU?$char_traits@D@std@@@std@@YAAEAV?$basic_ostream@DU?$char_traits@D@std@@@0@AEAV10@@Z")
          to label %7 unwind label %8

7:                                                ; preds = %5
  call void @"??1?$basic_string@DU?$char_traits@D@std@@V?$allocator@D@2@@std@@QEAA@XZ"(%"class.std::basic_string"* %0) #3
  ret void

8:                                                ; preds = %5, %3, %1
  %9 = cleanuppad within none []
  call void @"??1?$basic_string@DU?$char_traits@D@std@@V?$allocator@D@2@@std@@QEAA@XZ"(%"class.std::basic_string"* %0) #3 [ "funclet"(token %9) ]
  cleanupret from %9 unwind to caller
}

; Function Attrs: noinline optnone uwtable
define linkonce_odr dso_local nonnull align 8 dereferenceable(8) %"class.std::basic_ostream"* @"??$?6DU?$char_traits@D@std@@V?$allocator@D@1@@std@@YAAEAV?$basic_ostream@DU?$char_traits@D@std@@@0@AEAV10@AEBV?$basic_string@DU?$char_traits@D@std@@V?$allocator@D@2@@0@@Z"(%"class.std::basic_ostream"* nonnull align 8 dereferenceable(8) %0, %"class.std::basic_string"* nonnull align 8 dereferenceable(32) %1) #1 comdat {
  %3 = alloca %"class.std::basic_string"*, align 8
  %4 = alloca %"class.std::basic_ostream"*, align 8
  store %"class.std::basic_string"* %1, %"class.std::basic_string"** %3, align 8
  store %"class.std::basic_ostream"* %0, %"class.std::basic_ostream"** %4, align 8
  %5 = load %"class.std::basic_string"*, %"class.std::basic_string"** %3, align 8
  %6 = call i64 @"?size@?$basic_string@DU?$char_traits@D@std@@V?$allocator@D@2@@std@@QEBA_KXZ"(%"class.std::basic_string"* %5) #3
  %7 = load %"class.std::basic_string"*, %"class.std::basic_string"** %3, align 8
  %8 = call i8* @"?data@?$basic_string@DU?$char_traits@D@std@@V?$allocator@D@2@@std@@QEBAPEBDXZ"(%"class.std::basic_string"* %7) #3
  %9 = load %"class.std::basic_ostream"*, %"class.std::basic_ostream"** %4, align 8
  %10 = call nonnull align 8 dereferenceable(8) %"class.std::basic_ostream"* @"??$_Insert_string@DU?$char_traits@D@std@@_K@std@@YAAEAV?$basic_ostream@DU?$char_traits@D@std@@@0@AEAV10@QEBD_K@Z"(%"class.std::basic_ostream"* nonnull align 8 dereferenceable(8) %9, i8* %8, i64 %6)
  ret %"class.std::basic_ostream"* %10
}

; Function Attrs: noinline optnone uwtable
define linkonce_odr dso_local nonnull align 8 dereferenceable(8) %"class.std::basic_ostream"* @"??$?6U?$char_traits@D@std@@@std@@YAAEAV?$basic_ostream@DU?$char_traits@D@std@@@0@AEAV10@PEBD@Z"(%"class.std::basic_ostream"* nonnull align 8 dereferenceable(8) %0, i8* %1) #1 comdat personality i8* bitcast (i32 (...)* @__CxxFrameHandler3 to i8*) {
  %3 = alloca i8*, align 8
  %4 = alloca %"class.std::basic_ostream"*, align 8
  %5 = alloca i32, align 4
  %6 = alloca i64, align 8
  %7 = alloca i64, align 8
  %8 = alloca %"class.std::basic_ostream<char, std::char_traits<char>>::sentry", align 8
  %9 = alloca i32, align 4
  %10 = alloca i32, align 4
  %11 = alloca i32, align 4
  %12 = alloca i32, align 4
  store i8* %1, i8** %3, align 8
  store %"class.std::basic_ostream"* %0, %"class.std::basic_ostream"** %4, align 8
  store i32 0, i32* %5, align 4
  %13 = load i8*, i8** %3, align 8
  %14 = call i64 @"?length@?$_Narrow_char_traits@DH@std@@SA_KQEBD@Z"(i8* %13) #3
  store i64 %14, i64* %6, align 8
  %15 = load %"class.std::basic_ostream"*, %"class.std::basic_ostream"** %4, align 8
  %16 = bitcast %"class.std::basic_ostream"* %15 to i8*
  %17 = getelementptr inbounds i8, i8* %16, i64 0
  %18 = bitcast i8* %17 to i32**
  %19 = load i32*, i32** %18, align 8
  %20 = getelementptr inbounds i32, i32* %19, i32 1
  %21 = load i32, i32* %20, align 4
  %22 = sext i32 %21 to i64
  %23 = add nsw i64 0, %22
  %24 = bitcast %"class.std::basic_ostream"* %15 to i8*
  %25 = getelementptr inbounds i8, i8* %24, i64 %23
  %26 = bitcast i8* %25 to %"class.std::ios_base"*
  %27 = call i64 @"?width@ios_base@std@@QEBA_JXZ"(%"class.std::ios_base"* %26)
  %28 = icmp sle i64 %27, 0
  br i1 %28, label %45, label %29

29:                                               ; preds = %2
  %30 = load %"class.std::basic_ostream"*, %"class.std::basic_ostream"** %4, align 8
  %31 = bitcast %"class.std::basic_ostream"* %30 to i8*
  %32 = getelementptr inbounds i8, i8* %31, i64 0
  %33 = bitcast i8* %32 to i32**
  %34 = load i32*, i32** %33, align 8
  %35 = getelementptr inbounds i32, i32* %34, i32 1
  %36 = load i32, i32* %35, align 4
  %37 = sext i32 %36 to i64
  %38 = add nsw i64 0, %37
  %39 = bitcast %"class.std::basic_ostream"* %30 to i8*
  %40 = getelementptr inbounds i8, i8* %39, i64 %38
  %41 = bitcast i8* %40 to %"class.std::ios_base"*
  %42 = call i64 @"?width@ios_base@std@@QEBA_JXZ"(%"class.std::ios_base"* %41)
  %43 = load i64, i64* %6, align 8
  %44 = icmp sle i64 %42, %43
  br i1 %44, label %45, label %46

45:                                               ; preds = %29, %2
  br label %62

46:                                               ; preds = %29
  %47 = load %"class.std::basic_ostream"*, %"class.std::basic_ostream"** %4, align 8
  %48 = bitcast %"class.std::basic_ostream"* %47 to i8*
  %49 = getelementptr inbounds i8, i8* %48, i64 0
  %50 = bitcast i8* %49 to i32**
  %51 = load i32*, i32** %50, align 8
  %52 = getelementptr inbounds i32, i32* %51, i32 1
  %53 = load i32, i32* %52, align 4
  %54 = sext i32 %53 to i64
  %55 = add nsw i64 0, %54
  %56 = bitcast %"class.std::basic_ostream"* %47 to i8*
  %57 = getelementptr inbounds i8, i8* %56, i64 %55
  %58 = bitcast i8* %57 to %"class.std::ios_base"*
  %59 = call i64 @"?width@ios_base@std@@QEBA_JXZ"(%"class.std::ios_base"* %58)
  %60 = load i64, i64* %6, align 8
  %61 = sub nsw i64 %59, %60
  br label %62

62:                                               ; preds = %46, %45
  %63 = phi i64 [ 0, %45 ], [ %61, %46 ]
  store i64 %63, i64* %7, align 8
  %64 = load %"class.std::basic_ostream"*, %"class.std::basic_ostream"** %4, align 8
  %65 = call %"class.std::basic_ostream<char, std::char_traits<char>>::sentry"* @"??0sentry@?$basic_ostream@DU?$char_traits@D@std@@@std@@QEAA@AEAV12@@Z"(%"class.std::basic_ostream<char, std::char_traits<char>>::sentry"* %8, %"class.std::basic_ostream"* nonnull align 8 dereferenceable(8) %64)
  %66 = invoke zeroext i1 @"??Bsentry@?$basic_ostream@DU?$char_traits@D@std@@@std@@QEBA_NXZ"(%"class.std::basic_ostream<char, std::char_traits<char>>::sentry"* %8)
          to label %67 unwind label %258

67:                                               ; preds = %62
  br i1 %66, label %71, label %68

68:                                               ; preds = %67
  %69 = load i32, i32* %5, align 4
  %70 = or i32 %69, 4
  store i32 %70, i32* %5, align 4
  br label %242

71:                                               ; preds = %67
  %72 = load %"class.std::basic_ostream"*, %"class.std::basic_ostream"** %4, align 8
  %73 = bitcast %"class.std::basic_ostream"* %72 to i8*
  %74 = getelementptr inbounds i8, i8* %73, i64 0
  %75 = bitcast i8* %74 to i32**
  %76 = load i32*, i32** %75, align 8
  %77 = getelementptr inbounds i32, i32* %76, i32 1
  %78 = load i32, i32* %77, align 4
  %79 = sext i32 %78 to i64
  %80 = add nsw i64 0, %79
  %81 = bitcast %"class.std::basic_ostream"* %72 to i8*
  %82 = getelementptr inbounds i8, i8* %81, i64 %80
  %83 = bitcast i8* %82 to %"class.std::ios_base"*
  %84 = invoke i32 @"?flags@ios_base@std@@QEBAHXZ"(%"class.std::ios_base"* %83)
          to label %85 unwind label %222

85:                                               ; preds = %71
  %86 = and i32 %84, 448
  %87 = icmp ne i32 %86, 64
  br i1 %87, label %88, label %133

88:                                               ; preds = %85
  br label %89

89:                                               ; preds = %129, %88
  %90 = load i64, i64* %7, align 8
  %91 = icmp slt i64 0, %90
  br i1 %91, label %92, label %132

92:                                               ; preds = %89
  %93 = load %"class.std::basic_ostream"*, %"class.std::basic_ostream"** %4, align 8
  %94 = bitcast %"class.std::basic_ostream"* %93 to i8*
  %95 = getelementptr inbounds i8, i8* %94, i64 0
  %96 = bitcast i8* %95 to i32**
  %97 = load i32*, i32** %96, align 8
  %98 = getelementptr inbounds i32, i32* %97, i32 1
  %99 = load i32, i32* %98, align 4
  %100 = sext i32 %99 to i64
  %101 = add nsw i64 0, %100
  %102 = bitcast %"class.std::basic_ostream"* %93 to i8*
  %103 = getelementptr inbounds i8, i8* %102, i64 %101
  %104 = bitcast i8* %103 to %"class.std::basic_ios"*
  %105 = invoke %"class.std::basic_streambuf"* @"?rdbuf@?$basic_ios@DU?$char_traits@D@std@@@std@@QEBAPEAV?$basic_streambuf@DU?$char_traits@D@std@@@2@XZ"(%"class.std::basic_ios"* %104)
          to label %106 unwind label %222

106:                                              ; preds = %92
  %107 = load %"class.std::basic_ostream"*, %"class.std::basic_ostream"** %4, align 8
  %108 = bitcast %"class.std::basic_ostream"* %107 to i8*
  %109 = getelementptr inbounds i8, i8* %108, i64 0
  %110 = bitcast i8* %109 to i32**
  %111 = load i32*, i32** %110, align 8
  %112 = getelementptr inbounds i32, i32* %111, i32 1
  %113 = load i32, i32* %112, align 4
  %114 = sext i32 %113 to i64
  %115 = add nsw i64 0, %114
  %116 = bitcast %"class.std::basic_ostream"* %107 to i8*
  %117 = getelementptr inbounds i8, i8* %116, i64 %115
  %118 = bitcast i8* %117 to %"class.std::basic_ios"*
  %119 = invoke i8 @"?fill@?$basic_ios@DU?$char_traits@D@std@@@std@@QEBADXZ"(%"class.std::basic_ios"* %118)
          to label %120 unwind label %222

120:                                              ; preds = %106
  %121 = invoke i32 @"?sputc@?$basic_streambuf@DU?$char_traits@D@std@@@std@@QEAAHD@Z"(%"class.std::basic_streambuf"* %105, i8 %119)
          to label %122 unwind label %222

122:                                              ; preds = %120
  store i32 %121, i32* %9, align 4
  %123 = call i32 @"?eof@?$_Narrow_char_traits@DH@std@@SAHXZ"() #3
  store i32 %123, i32* %10, align 4
  %124 = call zeroext i1 @"?eq_int_type@?$_Narrow_char_traits@DH@std@@SA_NAEBH0@Z"(i32* nonnull align 4 dereferenceable(4) %10, i32* nonnull align 4 dereferenceable(4) %9) #3
  br i1 %124, label %125, label %128

125:                                              ; preds = %122
  %126 = load i32, i32* %5, align 4
  %127 = or i32 %126, 4
  store i32 %127, i32* %5, align 4
  br label %132

128:                                              ; preds = %122
  br label %129

129:                                              ; preds = %128
  %130 = load i64, i64* %7, align 8
  %131 = add nsw i64 %130, -1
  store i64 %131, i64* %7, align 8
  br label %89

132:                                              ; preds = %125, %89
  br label %133

133:                                              ; preds = %132, %85
  %134 = load i32, i32* %5, align 4
  %135 = icmp eq i32 %134, 0
  br i1 %135, label %136, label %160

136:                                              ; preds = %133
  %137 = load %"class.std::basic_ostream"*, %"class.std::basic_ostream"** %4, align 8
  %138 = bitcast %"class.std::basic_ostream"* %137 to i8*
  %139 = getelementptr inbounds i8, i8* %138, i64 0
  %140 = bitcast i8* %139 to i32**
  %141 = load i32*, i32** %140, align 8
  %142 = getelementptr inbounds i32, i32* %141, i32 1
  %143 = load i32, i32* %142, align 4
  %144 = sext i32 %143 to i64
  %145 = add nsw i64 0, %144
  %146 = bitcast %"class.std::basic_ostream"* %137 to i8*
  %147 = getelementptr inbounds i8, i8* %146, i64 %145
  %148 = bitcast i8* %147 to %"class.std::basic_ios"*
  %149 = invoke %"class.std::basic_streambuf"* @"?rdbuf@?$basic_ios@DU?$char_traits@D@std@@@std@@QEBAPEAV?$basic_streambuf@DU?$char_traits@D@std@@@2@XZ"(%"class.std::basic_ios"* %148)
          to label %150 unwind label %222

150:                                              ; preds = %136
  %151 = load i64, i64* %6, align 8
  %152 = load i8*, i8** %3, align 8
  %153 = invoke i64 @"?sputn@?$basic_streambuf@DU?$char_traits@D@std@@@std@@QEAA_JPEBD_J@Z"(%"class.std::basic_streambuf"* %149, i8* %152, i64 %151)
          to label %154 unwind label %222

154:                                              ; preds = %150
  %155 = load i64, i64* %6, align 8
  %156 = icmp ne i64 %153, %155
  br i1 %156, label %157, label %160

157:                                              ; preds = %154
  %158 = load i32, i32* %5, align 4
  %159 = or i32 %158, 4
  store i32 %159, i32* %5, align 4
  br label %160

160:                                              ; preds = %157, %154, %133
  %161 = load i32, i32* %5, align 4
  %162 = icmp eq i32 %161, 0
  br i1 %162, label %163, label %208

163:                                              ; preds = %160
  br label %164

164:                                              ; preds = %204, %163
  %165 = load i64, i64* %7, align 8
  %166 = icmp slt i64 0, %165
  br i1 %166, label %167, label %207

167:                                              ; preds = %164
  %168 = load %"class.std::basic_ostream"*, %"class.std::basic_ostream"** %4, align 8
  %169 = bitcast %"class.std::basic_ostream"* %168 to i8*
  %170 = getelementptr inbounds i8, i8* %169, i64 0
  %171 = bitcast i8* %170 to i32**
  %172 = load i32*, i32** %171, align 8
  %173 = getelementptr inbounds i32, i32* %172, i32 1
  %174 = load i32, i32* %173, align 4
  %175 = sext i32 %174 to i64
  %176 = add nsw i64 0, %175
  %177 = bitcast %"class.std::basic_ostream"* %168 to i8*
  %178 = getelementptr inbounds i8, i8* %177, i64 %176
  %179 = bitcast i8* %178 to %"class.std::basic_ios"*
  %180 = invoke %"class.std::basic_streambuf"* @"?rdbuf@?$basic_ios@DU?$char_traits@D@std@@@std@@QEBAPEAV?$basic_streambuf@DU?$char_traits@D@std@@@2@XZ"(%"class.std::basic_ios"* %179)
          to label %181 unwind label %222

181:                                              ; preds = %167
  %182 = load %"class.std::basic_ostream"*, %"class.std::basic_ostream"** %4, align 8
  %183 = bitcast %"class.std::basic_ostream"* %182 to i8*
  %184 = getelementptr inbounds i8, i8* %183, i64 0
  %185 = bitcast i8* %184 to i32**
  %186 = load i32*, i32** %185, align 8
  %187 = getelementptr inbounds i32, i32* %186, i32 1
  %188 = load i32, i32* %187, align 4
  %189 = sext i32 %188 to i64
  %190 = add nsw i64 0, %189
  %191 = bitcast %"class.std::basic_ostream"* %182 to i8*
  %192 = getelementptr inbounds i8, i8* %191, i64 %190
  %193 = bitcast i8* %192 to %"class.std::basic_ios"*
  %194 = invoke i8 @"?fill@?$basic_ios@DU?$char_traits@D@std@@@std@@QEBADXZ"(%"class.std::basic_ios"* %193)
          to label %195 unwind label %222

195:                                              ; preds = %181
  %196 = invoke i32 @"?sputc@?$basic_streambuf@DU?$char_traits@D@std@@@std@@QEAAHD@Z"(%"class.std::basic_streambuf"* %180, i8 %194)
          to label %197 unwind label %222

197:                                              ; preds = %195
  store i32 %196, i32* %11, align 4
  %198 = call i32 @"?eof@?$_Narrow_char_traits@DH@std@@SAHXZ"() #3
  store i32 %198, i32* %12, align 4
  %199 = call zeroext i1 @"?eq_int_type@?$_Narrow_char_traits@DH@std@@SA_NAEBH0@Z"(i32* nonnull align 4 dereferenceable(4) %12, i32* nonnull align 4 dereferenceable(4) %11) #3
  br i1 %199, label %200, label %203

200:                                              ; preds = %197
  %201 = load i32, i32* %5, align 4
  %202 = or i32 %201, 4
  store i32 %202, i32* %5, align 4
  br label %207

203:                                              ; preds = %197
  br label %204

204:                                              ; preds = %203
  %205 = load i64, i64* %7, align 8
  %206 = add nsw i64 %205, -1
  store i64 %206, i64* %7, align 8
  br label %164

207:                                              ; preds = %200, %164
  br label %208

208:                                              ; preds = %207, %160
  %209 = load %"class.std::basic_ostream"*, %"class.std::basic_ostream"** %4, align 8
  %210 = bitcast %"class.std::basic_ostream"* %209 to i8*
  %211 = getelementptr inbounds i8, i8* %210, i64 0
  %212 = bitcast i8* %211 to i32**
  %213 = load i32*, i32** %212, align 8
  %214 = getelementptr inbounds i32, i32* %213, i32 1
  %215 = load i32, i32* %214, align 4
  %216 = sext i32 %215 to i64
  %217 = add nsw i64 0, %216
  %218 = bitcast %"class.std::basic_ostream"* %209 to i8*
  %219 = getelementptr inbounds i8, i8* %218, i64 %217
  %220 = bitcast i8* %219 to %"class.std::ios_base"*
  %221 = invoke i64 @"?width@ios_base@std@@QEAA_J_J@Z"(%"class.std::ios_base"* %220, i64 0)
          to label %241 unwind label %222

222:                                              ; preds = %208, %195, %181, %167, %150, %136, %120, %106, %92, %71
  %223 = catchswitch within none [label %224] unwind label %258

224:                                              ; preds = %222
  %225 = catchpad within %223 [i8* null, i32 64, i8* null]
  %226 = load %"class.std::basic_ostream"*, %"class.std::basic_ostream"** %4, align 8
  %227 = bitcast %"class.std::basic_ostream"* %226 to i8*
  %228 = getelementptr inbounds i8, i8* %227, i64 0
  %229 = bitcast i8* %228 to i32**
  %230 = load i32*, i32** %229, align 8
  %231 = getelementptr inbounds i32, i32* %230, i32 1
  %232 = load i32, i32* %231, align 4
  %233 = sext i32 %232 to i64
  %234 = add nsw i64 0, %233
  %235 = bitcast %"class.std::basic_ostream"* %226 to i8*
  %236 = getelementptr inbounds i8, i8* %235, i64 %234
  %237 = bitcast i8* %236 to %"class.std::basic_ios"*
  invoke void @"?setstate@?$basic_ios@DU?$char_traits@D@std@@@std@@QEAAXH_N@Z"(%"class.std::basic_ios"* %237, i32 4, i1 zeroext true) [ "funclet"(token %225) ]
          to label %238 unwind label %258

238:                                              ; preds = %224
  catchret from %225 to label %239

239:                                              ; preds = %238
  br label %240

240:                                              ; preds = %239, %241
  br label %242

241:                                              ; preds = %208
  br label %240

242:                                              ; preds = %240, %68
  %243 = load %"class.std::basic_ostream"*, %"class.std::basic_ostream"** %4, align 8
  %244 = bitcast %"class.std::basic_ostream"* %243 to i8*
  %245 = getelementptr inbounds i8, i8* %244, i64 0
  %246 = bitcast i8* %245 to i32**
  %247 = load i32*, i32** %246, align 8
  %248 = getelementptr inbounds i32, i32* %247, i32 1
  %249 = load i32, i32* %248, align 4
  %250 = sext i32 %249 to i64
  %251 = add nsw i64 0, %250
  %252 = bitcast %"class.std::basic_ostream"* %243 to i8*
  %253 = getelementptr inbounds i8, i8* %252, i64 %251
  %254 = bitcast i8* %253 to %"class.std::basic_ios"*
  %255 = load i32, i32* %5, align 4
  invoke void @"?setstate@?$basic_ios@DU?$char_traits@D@std@@@std@@QEAAXH_N@Z"(%"class.std::basic_ios"* %254, i32 %255, i1 zeroext false)
          to label %256 unwind label %258

256:                                              ; preds = %242
  %257 = load %"class.std::basic_ostream"*, %"class.std::basic_ostream"** %4, align 8
  call void @"??1sentry@?$basic_ostream@DU?$char_traits@D@std@@@std@@QEAA@XZ"(%"class.std::basic_ostream<char, std::char_traits<char>>::sentry"* %8) #3
  ret %"class.std::basic_ostream"* %257

258:                                              ; preds = %242, %224, %222, %62
  %259 = cleanuppad within none []
  call void @"??1sentry@?$basic_ostream@DU?$char_traits@D@std@@@std@@QEAA@XZ"(%"class.std::basic_ostream<char, std::char_traits<char>>::sentry"* %8) #3 [ "funclet"(token %259) ]
  cleanupret from %259 unwind to caller
}

declare dso_local i32 @__CxxFrameHandler3(...)

; Function Attrs: noinline optnone uwtable
define linkonce_odr dso_local nonnull align 8 dereferenceable(8) %"class.std::basic_ostream"* @"??6?$basic_ostream@DU?$char_traits@D@std@@@std@@QEAAAEAV01@P6AAEAV01@AEAV01@@Z@Z"(%"class.std::basic_ostream"* %0, %"class.std::basic_ostream"* (%"class.std::basic_ostream"*)* %1) #1 comdat align 2 {
  %3 = alloca %"class.std::basic_ostream"* (%"class.std::basic_ostream"*)*, align 8
  %4 = alloca %"class.std::basic_ostream"*, align 8
  store %"class.std::basic_ostream"* (%"class.std::basic_ostream"*)* %1, %"class.std::basic_ostream"* (%"class.std::basic_ostream"*)** %3, align 8
  store %"class.std::basic_ostream"* %0, %"class.std::basic_ostream"** %4, align 8
  %5 = load %"class.std::basic_ostream"*, %"class.std::basic_ostream"** %4, align 8
  %6 = load %"class.std::basic_ostream"* (%"class.std::basic_ostream"*)*, %"class.std::basic_ostream"* (%"class.std::basic_ostream"*)** %3, align 8
  %7 = call nonnull align 8 dereferenceable(8) %"class.std::basic_ostream"* %6(%"class.std::basic_ostream"* nonnull align 8 dereferenceable(8) %5)
  ret %"class.std::basic_ostream"* %7
}

; Function Attrs: noinline optnone uwtable
define linkonce_odr dso_local nonnull align 8 dereferenceable(8) %"class.std::basic_ostream"* @"??$endl@DU?$char_traits@D@std@@@std@@YAAEAV?$basic_ostream@DU?$char_traits@D@std@@@0@AEAV10@@Z"(%"class.std::basic_ostream"* nonnull align 8 dereferenceable(8) %0) #1 comdat {
  %2 = alloca %"class.std::basic_ostream"*, align 8
  store %"class.std::basic_ostream"* %0, %"class.std::basic_ostream"** %2, align 8
  %3 = load %"class.std::basic_ostream"*, %"class.std::basic_ostream"** %2, align 8
  %4 = load %"class.std::basic_ostream"*, %"class.std::basic_ostream"** %2, align 8
  %5 = bitcast %"class.std::basic_ostream"* %4 to i8*
  %6 = getelementptr inbounds i8, i8* %5, i64 0
  %7 = bitcast i8* %6 to i32**
  %8 = load i32*, i32** %7, align 8
  %9 = getelementptr inbounds i32, i32* %8, i32 1
  %10 = load i32, i32* %9, align 4
  %11 = sext i32 %10 to i64
  %12 = add nsw i64 0, %11
  %13 = bitcast %"class.std::basic_ostream"* %4 to i8*
  %14 = getelementptr inbounds i8, i8* %13, i64 %12
  %15 = bitcast i8* %14 to %"class.std::basic_ios"*
  %16 = call i8 @"?widen@?$basic_ios@DU?$char_traits@D@std@@@std@@QEBADD@Z"(%"class.std::basic_ios"* %15, i8 10)
  %17 = call nonnull align 8 dereferenceable(8) %"class.std::basic_ostream"* @"?put@?$basic_ostream@DU?$char_traits@D@std@@@std@@QEAAAEAV12@D@Z"(%"class.std::basic_ostream"* %3, i8 %16)
  %18 = load %"class.std::basic_ostream"*, %"class.std::basic_ostream"** %2, align 8
  %19 = call nonnull align 8 dereferenceable(8) %"class.std::basic_ostream"* @"?flush@?$basic_ostream@DU?$char_traits@D@std@@@std@@QEAAAEAV12@XZ"(%"class.std::basic_ostream"* %18)
  %20 = load %"class.std::basic_ostream"*, %"class.std::basic_ostream"** %2, align 8
  ret %"class.std::basic_ostream"* %20
}

; Function Attrs: noinline optnone uwtable
define dso_local void @"?stdlib@@YAXXZ"() #1 personality i8* bitcast (i32 (...)* @__CxxFrameHandler3 to i8*) {
  %1 = alloca %"class.std::thread", align 8
  %2 = call %"class.std::thread"* @"??$?0A6AXV?$basic_string@DU?$char_traits@D@std@@V?$allocator@D@2@@std@@@ZAEAY05$$CBD$0A@@thread@std@@QEAA@A6AXV?$basic_string@DU?$char_traits@D@std@@V?$allocator@D@2@@1@@ZAEAY05$$CBD@Z"(%"class.std::thread"* %1, void (%"class.std::basic_string"*)* nonnull @"?task1@@YAXV?$basic_string@DU?$char_traits@D@std@@V?$allocator@D@2@@std@@@Z", [6 x i8]* nonnull align 1 dereferenceable(6) @"??_C@_05COLMCDPH@Hello?$AA@")
  invoke void @"?join@thread@std@@QEAAXXZ"(%"class.std::thread"* %1)
          to label %3 unwind label %4

3:                                                ; preds = %0
  call void @"??1thread@std@@QEAA@XZ"(%"class.std::thread"* %1) #3
  ret void

4:                                                ; preds = %0
  %5 = cleanuppad within none []
  call void @"??1thread@std@@QEAA@XZ"(%"class.std::thread"* %1) #3 [ "funclet"(token %5) ]
  cleanupret from %5 unwind to caller
}

; Function Attrs: noinline optnone uwtable
define linkonce_odr dso_local %"class.std::thread"* @"??$?0A6AXV?$basic_string@DU?$char_traits@D@std@@V?$allocator@D@2@@std@@@ZAEAY05$$CBD$0A@@thread@std@@QEAA@A6AXV?$basic_string@DU?$char_traits@D@std@@V?$allocator@D@2@@1@@ZAEAY05$$CBD@Z"(%"class.std::thread"* returned %0, void (%"class.std::basic_string"*)* nonnull %1, [6 x i8]* nonnull align 1 dereferenceable(6) %2) unnamed_addr #1 comdat align 2 personality i8* bitcast (i32 (...)* @__CxxFrameHandler3 to i8*) {
  %4 = alloca [6 x i8]*, align 8
  %5 = alloca void (%"class.std::basic_string"*)*, align 8
  %6 = alloca %"class.std::thread"*, align 8
  %7 = alloca %"class.std::unique_ptr.4", align 8
  %8 = alloca %"class.std::unique_ptr.4", align 8
  %9 = alloca i32 (i8*)*, align 8
  store [6 x i8]* %2, [6 x i8]** %4, align 8
  store void (%"class.std::basic_string"*)* %1, void (%"class.std::basic_string"*)** %5, align 8
  store %"class.std::thread"* %0, %"class.std::thread"** %6, align 8
  %10 = load %"class.std::thread"*, %"class.std::thread"** %6, align 8
  %11 = getelementptr inbounds %"class.std::thread", %"class.std::thread"* %10, i32 0, i32 0
  %12 = load [6 x i8]*, [6 x i8]** %4, align 8
  %13 = call nonnull align 1 dereferenceable(6) [6 x i8]* @"??$forward@AEAY05$$CBD@std@@YAAEAY05$$CBDAEAY05$$CBD@Z"([6 x i8]* nonnull align 1 dereferenceable(6) %12) #3
  %14 = load void (%"class.std::basic_string"*)*, void (%"class.std::basic_string"*)** %5, align 8
  %15 = call nonnull void (%"class.std::basic_string"*)* @"??$forward@A6AXV?$basic_string@DU?$char_traits@D@std@@V?$allocator@D@2@@std@@@Z@std@@YAA6AXV?$basic_string@DU?$char_traits@D@std@@V?$allocator@D@2@@0@@ZA6AX0@Z@Z"(void (%"class.std::basic_string"*)* nonnull %14) #3
  call void @"??$make_unique@V?$tuple@P6AXV?$basic_string@DU?$char_traits@D@std@@V?$allocator@D@2@@std@@@ZPEBD@std@@A6AXV?$basic_string@DU?$char_traits@D@std@@V?$allocator@D@2@@2@@ZAEAY05$$CBD$0A@@std@@YA?AV?$unique_ptr@V?$tuple@P6AXV?$basic_string@DU?$char_traits@D@std@@V?$allocator@D@2@@std@@@ZPEBD@std@@U?$default_delete@V?$tuple@P6AXV?$basic_string@DU?$char_traits@D@std@@V?$allocator@D@2@@std@@@ZPEBD@std@@@2@@0@A6AXV?$basic_string@DU?$char_traits@D@std@@V?$allocator@D@2@@0@@ZAEAY05$$CBD@Z"(%"class.std::unique_ptr.4"* sret align 8 %8, void (%"class.std::basic_string"*)* nonnull %15, [6 x i8]* nonnull align 1 dereferenceable(6) %13)
  %16 = call %"class.std::unique_ptr.4"* @"??$?0U?$default_delete@V?$tuple@P6AXV?$basic_string@DU?$char_traits@D@std@@V?$allocator@D@2@@std@@@ZPEBD@std@@@std@@$0A@@?$unique_ptr@V?$tuple@P6AXV?$basic_string@DU?$char_traits@D@std@@V?$allocator@D@2@@std@@@ZPEBD@std@@U?$default_delete@V?$tuple@P6AXV?$basic_string@DU?$char_traits@D@std@@V?$allocator@D@2@@std@@@ZPEBD@std@@@2@@std@@QEAA@$$QEAV01@@Z"(%"class.std::unique_ptr.4"* %7, %"class.std::unique_ptr.4"* nonnull align 8 dereferenceable(8) %8) #3
  call void @"??1?$unique_ptr@V?$tuple@P6AXV?$basic_string@DU?$char_traits@D@std@@V?$allocator@D@2@@std@@@ZPEBD@std@@U?$default_delete@V?$tuple@P6AXV?$basic_string@DU?$char_traits@D@std@@V?$allocator@D@2@@std@@@ZPEBD@std@@@2@@std@@QEAA@XZ"(%"class.std::unique_ptr.4"* %8) #3
  store i32 (i8*)* @"??$_Invoke@V?$tuple@P6AXV?$basic_string@DU?$char_traits@D@std@@V?$allocator@D@2@@std@@@ZPEBD@std@@$0A@$00@thread@std@@CAIPEAX@Z", i32 (i8*)** %9, align 8
  %17 = getelementptr inbounds %"class.std::thread", %"class.std::thread"* %10, i32 0, i32 0
  %18 = getelementptr inbounds %struct._Thrd_t, %struct._Thrd_t* %17, i32 0, i32 1
  %19 = call %"class.std::tuple"* @"?get@?$unique_ptr@V?$tuple@P6AXV?$basic_string@DU?$char_traits@D@std@@V?$allocator@D@2@@std@@@ZPEBD@std@@U?$default_delete@V?$tuple@P6AXV?$basic_string@DU?$char_traits@D@std@@V?$allocator@D@2@@std@@@ZPEBD@std@@@2@@std@@QEBAPEAV?$tuple@P6AXV?$basic_string@DU?$char_traits@D@std@@V?$allocator@D@2@@std@@@ZPEBD@2@XZ"(%"class.std::unique_ptr.4"* %7) #3
  %20 = bitcast %"class.std::tuple"* %19 to i8*
  %21 = invoke i64 @_beginthreadex(i8* null, i32 0, i32 (i8*)* @"??$_Invoke@V?$tuple@P6AXV?$basic_string@DU?$char_traits@D@std@@V?$allocator@D@2@@std@@@ZPEBD@std@@$0A@$00@thread@std@@CAIPEAX@Z", i8* %20, i32 0, i32* %18)
          to label %22 unwind label %37

22:                                               ; preds = %3
  %23 = inttoptr i64 %21 to i8*
  %24 = getelementptr inbounds %"class.std::thread", %"class.std::thread"* %10, i32 0, i32 0
  %25 = getelementptr inbounds %struct._Thrd_t, %struct._Thrd_t* %24, i32 0, i32 0
  store i8* %23, i8** %25, align 8
  %26 = getelementptr inbounds %"class.std::thread", %"class.std::thread"* %10, i32 0, i32 0
  %27 = getelementptr inbounds %struct._Thrd_t, %struct._Thrd_t* %26, i32 0, i32 0
  %28 = load i8*, i8** %27, align 8
  %29 = icmp ne i8* %28, null
  br i1 %29, label %30, label %32

30:                                               ; preds = %22
  %31 = call %"class.std::tuple"* @"?release@?$unique_ptr@V?$tuple@P6AXV?$basic_string@DU?$char_traits@D@std@@V?$allocator@D@2@@std@@@ZPEBD@std@@U?$default_delete@V?$tuple@P6AXV?$basic_string@DU?$char_traits@D@std@@V?$allocator@D@2@@std@@@ZPEBD@std@@@2@@std@@QEAAPEAV?$tuple@P6AXV?$basic_string@DU?$char_traits@D@std@@V?$allocator@D@2@@std@@@ZPEBD@2@XZ"(%"class.std::unique_ptr.4"* %7) #3
  br label %36

32:                                               ; preds = %22
  %33 = getelementptr inbounds %"class.std::thread", %"class.std::thread"* %10, i32 0, i32 0
  %34 = getelementptr inbounds %struct._Thrd_t, %struct._Thrd_t* %33, i32 0, i32 1
  store i32 0, i32* %34, align 8
  invoke void @"?_Throw_Cpp_error@std@@YAXH@Z"(i32 6) #14
          to label %35 unwind label %37

35:                                               ; preds = %32
  unreachable

36:                                               ; preds = %30
  call void @"??1?$unique_ptr@V?$tuple@P6AXV?$basic_string@DU?$char_traits@D@std@@V?$allocator@D@2@@std@@@ZPEBD@std@@U?$default_delete@V?$tuple@P6AXV?$basic_string@DU?$char_traits@D@std@@V?$allocator@D@2@@std@@@ZPEBD@std@@@2@@std@@QEAA@XZ"(%"class.std::unique_ptr.4"* %7) #3
  ret %"class.std::thread"* %10

37:                                               ; preds = %32, %3
  %38 = cleanuppad within none []
  call void @"??1?$unique_ptr@V?$tuple@P6AXV?$basic_string@DU?$char_traits@D@std@@V?$allocator@D@2@@std@@@ZPEBD@std@@U?$default_delete@V?$tuple@P6AXV?$basic_string@DU?$char_traits@D@std@@V?$allocator@D@2@@std@@@ZPEBD@std@@@2@@std@@QEAA@XZ"(%"class.std::unique_ptr.4"* %7) #3 [ "funclet"(token %38) ]
  cleanupret from %38 unwind to caller
}

; Function Attrs: noinline optnone uwtable
define linkonce_odr dso_local void @"?join@thread@std@@QEAAXXZ"(%"class.std::thread"* %0) #1 comdat align 2 {
  %2 = alloca %"class.std::thread"*, align 8
  %3 = alloca %struct._Thrd_t, align 8
  %4 = alloca %struct._Thrd_t, align 8
  store %"class.std::thread"* %0, %"class.std::thread"** %2, align 8
  %5 = load %"class.std::thread"*, %"class.std::thread"** %2, align 8
  %6 = call zeroext i1 @"?joinable@thread@std@@QEBA_NXZ"(%"class.std::thread"* %5) #3
  br i1 %6, label %8, label %7

7:                                                ; preds = %1
  call void @"?_Throw_Cpp_error@std@@YAXH@Z"(i32 1) #14
  unreachable

8:                                                ; preds = %1
  %9 = getelementptr inbounds %"class.std::thread", %"class.std::thread"* %5, i32 0, i32 0
  %10 = getelementptr inbounds %struct._Thrd_t, %struct._Thrd_t* %9, i32 0, i32 1
  %11 = load i32, i32* %10, align 8
  %12 = call i32 @_Thrd_id()
  %13 = icmp eq i32 %11, %12
  br i1 %13, label %14, label %15

14:                                               ; preds = %8
  call void @"?_Throw_Cpp_error@std@@YAXH@Z"(i32 5) #14
  unreachable

15:                                               ; preds = %8
  %16 = getelementptr inbounds %"class.std::thread", %"class.std::thread"* %5, i32 0, i32 0
  %17 = bitcast %struct._Thrd_t* %3 to i8*
  %18 = bitcast %struct._Thrd_t* %16 to i8*
  call void @llvm.memcpy.p0i8.p0i8.i64(i8* align 8 %17, i8* align 8 %18, i64 16, i1 false)
  %19 = call i32 @_Thrd_join(%struct._Thrd_t* %3, i32* null)
  %20 = icmp ne i32 %19, 0
  br i1 %20, label %21, label %22

21:                                               ; preds = %15
  call void @"?_Throw_Cpp_error@std@@YAXH@Z"(i32 2) #14
  unreachable

22:                                               ; preds = %15
  %23 = getelementptr inbounds %struct._Thrd_t, %struct._Thrd_t* %4, i32 0, i32 0
  store i8* null, i8** %23, align 8
  %24 = getelementptr inbounds %struct._Thrd_t, %struct._Thrd_t* %4, i32 0, i32 1
  store i32 0, i32* %24, align 8
  %25 = getelementptr inbounds %"class.std::thread", %"class.std::thread"* %5, i32 0, i32 0
  %26 = bitcast %struct._Thrd_t* %25 to i8*
  %27 = bitcast %struct._Thrd_t* %4 to i8*
  call void @llvm.memcpy.p0i8.p0i8.i64(i8* align 8 %26, i8* align 8 %27, i64 16, i1 false)
  ret void
}

; Function Attrs: noinline nounwind optnone uwtable
define linkonce_odr dso_local void @"??1thread@std@@QEAA@XZ"(%"class.std::thread"* %0) unnamed_addr #2 comdat align 2 {
  %2 = alloca %"class.std::thread"*, align 8
  store %"class.std::thread"* %0, %"class.std::thread"** %2, align 8
  %3 = load %"class.std::thread"*, %"class.std::thread"** %2, align 8
  %4 = call zeroext i1 @"?joinable@thread@std@@QEBA_NXZ"(%"class.std::thread"* %3) #3
  br i1 %4, label %5, label %6

5:                                                ; preds = %1
  call void @terminate() #15
  unreachable

6:                                                ; preds = %1
  ret void
}

; Function Attrs: noinline optnone uwtable
define dso_local void @"?plainCreateRemoteThread@@YAXXZ"() #1 {
  %1 = alloca i8*, align 8
  %2 = call i8* @GetCurrentProcess()
  %3 = call i8* @CreateRemoteThread(i8* %2, %struct._SECURITY_ATTRIBUTES* null, i64 0, i32 (i8*)* bitcast (void (%"class.std::basic_string"*)* @"?task1@@YAXV?$basic_string@DU?$char_traits@D@std@@V?$allocator@D@2@@std@@@Z" to i32 (i8*)*), i8* bitcast (%"class.std::basic_string"* @"?hello@@3V?$basic_string@DU?$char_traits@D@std@@V?$allocator@D@2@@std@@A" to i8*), i32 0, i32* null)
  store i8* %3, i8** %1, align 8
  %4 = load i8*, i8** %1, align 8
  %5 = call i32 @WaitForSingleObject(i8* %4, i32 -1)
  ret void
}

declare dllimport i8* @CreateRemoteThread(i8*, %struct._SECURITY_ATTRIBUTES*, i64, i32 (i8*)*, i8*, i32, i32*) #4

declare dllimport i8* @GetCurrentProcess() #4

declare dllimport i32 @WaitForSingleObject(i8*, i32) #4

; Function Attrs: noinline norecurse optnone uwtable
define dso_local i32 @main() #5 {
  call void @"?stdlib@@YAXXZ"()
  call void @"?plainCreateRemoteThread@@YAXXZ"()
  ret i32 0
}

; Function Attrs: noinline nounwind optnone uwtable
define linkonce_odr dso_local zeroext i1 @"?joinable@thread@std@@QEBA_NXZ"(%"class.std::thread"* %0) #2 comdat align 2 {
  %2 = alloca %"class.std::thread"*, align 8
  store %"class.std::thread"* %0, %"class.std::thread"** %2, align 8
  %3 = load %"class.std::thread"*, %"class.std::thread"** %2, align 8
  %4 = getelementptr inbounds %"class.std::thread", %"class.std::thread"* %3, i32 0, i32 0
  %5 = getelementptr inbounds %struct._Thrd_t, %struct._Thrd_t* %4, i32 0, i32 1
  %6 = load i32, i32* %5, align 8
  %7 = icmp ne i32 %6, 0
  ret i1 %7
}

; Function Attrs: noreturn
declare dso_local void @"?_Throw_Cpp_error@std@@YAXH@Z"(i32) #6

declare dso_local i32 @_Thrd_id() #4

declare dso_local i32 @_Thrd_join(%struct._Thrd_t*, i32*) #4

; Function Attrs: argmemonly nounwind willreturn
declare void @llvm.memcpy.p0i8.p0i8.i64(i8* noalias nocapture writeonly, i8* noalias nocapture readonly, i64, i1 immarg) #7

; Function Attrs: noreturn nounwind
declare dso_local void @terminate() #8

; Function Attrs: noinline nounwind optnone uwtable
define linkonce_odr dso_local void @"?_Tidy_deallocate@?$basic_string@DU?$char_traits@D@std@@V?$allocator@D@2@@std@@AEAAXXZ"(%"class.std::basic_string"* %0) #2 comdat align 2 personality i8* bitcast (i32 (...)* @__CxxFrameHandler3 to i8*) {
  %2 = alloca %"class.std::basic_string"*, align 8
  %3 = alloca i8*, align 8
  %4 = alloca %"class.std::allocator"*, align 8
  %5 = alloca i8, align 1
  store %"class.std::basic_string"* %0, %"class.std::basic_string"** %2, align 8
  %6 = load %"class.std::basic_string"*, %"class.std::basic_string"** %2, align 8
  %7 = getelementptr inbounds %"class.std::basic_string", %"class.std::basic_string"* %6, i32 0, i32 0
  %8 = getelementptr inbounds %"class.std::_Compressed_pair", %"class.std::_Compressed_pair"* %7, i32 0, i32 0
  %9 = bitcast %"class.std::_String_val"* %8 to %"struct.std::_Container_base0"*
  call void @"?_Orphan_all@_Container_base0@std@@QEAAXXZ"(%"struct.std::_Container_base0"* %9) #3
  %10 = getelementptr inbounds %"class.std::basic_string", %"class.std::basic_string"* %6, i32 0, i32 0
  %11 = getelementptr inbounds %"class.std::_Compressed_pair", %"class.std::_Compressed_pair"* %10, i32 0, i32 0
  %12 = call zeroext i1 @"?_Large_string_engaged@?$_String_val@U?$_Simple_types@D@std@@@std@@QEBA_NXZ"(%"class.std::_String_val"* %11) #3
  br i1 %12, label %13, label %32

13:                                               ; preds = %1
  %14 = getelementptr inbounds %"class.std::basic_string", %"class.std::basic_string"* %6, i32 0, i32 0
  %15 = getelementptr inbounds %"class.std::_Compressed_pair", %"class.std::_Compressed_pair"* %14, i32 0, i32 0
  %16 = getelementptr inbounds %"class.std::_String_val", %"class.std::_String_val"* %15, i32 0, i32 0
  %17 = bitcast %"union.std::_String_val<std::_Simple_types<char>>::_Bxty"* %16 to i8**
  %18 = load i8*, i8** %17, align 8
  store i8* %18, i8** %3, align 8
  %19 = call nonnull align 1 dereferenceable(1) %"class.std::allocator"* @"?_Getal@?$basic_string@DU?$char_traits@D@std@@V?$allocator@D@2@@std@@AEAAAEAV?$allocator@D@2@XZ"(%"class.std::basic_string"* %6) #3
  store %"class.std::allocator"* %19, %"class.std::allocator"** %4, align 8
  %20 = getelementptr inbounds %"class.std::basic_string", %"class.std::basic_string"* %6, i32 0, i32 0
  %21 = getelementptr inbounds %"class.std::_Compressed_pair", %"class.std::_Compressed_pair"* %20, i32 0, i32 0
  %22 = getelementptr inbounds %"class.std::_String_val", %"class.std::_String_val"* %21, i32 0, i32 0
  %23 = bitcast %"union.std::_String_val<std::_Simple_types<char>>::_Bxty"* %22 to i8**
  call void @"??$_Destroy_in_place@PEAD@std@@YAXAEAPEAD@Z"(i8** nonnull align 8 dereferenceable(8) %23) #3
  %24 = load %"class.std::allocator"*, %"class.std::allocator"** %4, align 8
  %25 = getelementptr inbounds %"class.std::basic_string", %"class.std::basic_string"* %6, i32 0, i32 0
  %26 = getelementptr inbounds %"class.std::_Compressed_pair", %"class.std::_Compressed_pair"* %25, i32 0, i32 0
  %27 = getelementptr inbounds %"class.std::_String_val", %"class.std::_String_val"* %26, i32 0, i32 2
  %28 = load i64, i64* %27, align 8
  %29 = add i64 %28, 1
  %30 = load i8*, i8** %3, align 8
  invoke void @"?deallocate@?$allocator@D@std@@QEAAXQEAD_K@Z"(%"class.std::allocator"* %24, i8* %30, i64 %29)
          to label %31 unwind label %44

31:                                               ; preds = %13
  br label %32

32:                                               ; preds = %31, %1
  %33 = getelementptr inbounds %"class.std::basic_string", %"class.std::basic_string"* %6, i32 0, i32 0
  %34 = getelementptr inbounds %"class.std::_Compressed_pair", %"class.std::_Compressed_pair"* %33, i32 0, i32 0
  %35 = getelementptr inbounds %"class.std::_String_val", %"class.std::_String_val"* %34, i32 0, i32 1
  store i64 0, i64* %35, align 8
  %36 = getelementptr inbounds %"class.std::basic_string", %"class.std::basic_string"* %6, i32 0, i32 0
  %37 = getelementptr inbounds %"class.std::_Compressed_pair", %"class.std::_Compressed_pair"* %36, i32 0, i32 0
  %38 = getelementptr inbounds %"class.std::_String_val", %"class.std::_String_val"* %37, i32 0, i32 2
  store i64 15, i64* %38, align 8
  store i8 0, i8* %5, align 1
  %39 = getelementptr inbounds %"class.std::basic_string", %"class.std::basic_string"* %6, i32 0, i32 0
  %40 = getelementptr inbounds %"class.std::_Compressed_pair", %"class.std::_Compressed_pair"* %39, i32 0, i32 0
  %41 = getelementptr inbounds %"class.std::_String_val", %"class.std::_String_val"* %40, i32 0, i32 0
  %42 = bitcast %"union.std::_String_val<std::_Simple_types<char>>::_Bxty"* %41 to [16 x i8]*
  %43 = getelementptr inbounds [16 x i8], [16 x i8]* %42, i64 0, i64 0
  call void @"?assign@?$_Narrow_char_traits@DH@std@@SAXAEADAEBD@Z"(i8* nonnull align 1 dereferenceable(1) %43, i8* nonnull align 1 dereferenceable(1) %5) #3
  ret void

44:                                               ; preds = %13
  %45 = cleanuppad within none []
  call void @__std_terminate() #15 [ "funclet"(token %45) ]
  unreachable
}

; Function Attrs: noinline nounwind optnone uwtable
define linkonce_odr dso_local void @"??1?$_Compressed_pair@V?$allocator@D@std@@V?$_String_val@U?$_Simple_types@D@std@@@2@$00@std@@QEAA@XZ"(%"class.std::_Compressed_pair"* %0) unnamed_addr #2 comdat align 2 {
  %2 = alloca %"class.std::_Compressed_pair"*, align 8
  store %"class.std::_Compressed_pair"* %0, %"class.std::_Compressed_pair"** %2, align 8
  %3 = load %"class.std::_Compressed_pair"*, %"class.std::_Compressed_pair"** %2, align 8
  %4 = getelementptr inbounds %"class.std::_Compressed_pair", %"class.std::_Compressed_pair"* %3, i32 0, i32 0
  call void @"??1?$_String_val@U?$_Simple_types@D@std@@@std@@QEAA@XZ"(%"class.std::_String_val"* %4) #3
  ret void
}

; Function Attrs: noinline nounwind optnone uwtable
define linkonce_odr dso_local void @"?_Orphan_all@_Container_base0@std@@QEAAXXZ"(%"struct.std::_Container_base0"* %0) #2 comdat align 2 {
  %2 = alloca %"struct.std::_Container_base0"*, align 8
  store %"struct.std::_Container_base0"* %0, %"struct.std::_Container_base0"** %2, align 8
  %3 = load %"struct.std::_Container_base0"*, %"struct.std::_Container_base0"** %2, align 8
  ret void
}

; Function Attrs: noinline nounwind optnone uwtable
define linkonce_odr dso_local zeroext i1 @"?_Large_string_engaged@?$_String_val@U?$_Simple_types@D@std@@@std@@QEBA_NXZ"(%"class.std::_String_val"* %0) #2 comdat align 2 {
  %2 = alloca %"class.std::_String_val"*, align 8
  store %"class.std::_String_val"* %0, %"class.std::_String_val"** %2, align 8
  %3 = load %"class.std::_String_val"*, %"class.std::_String_val"** %2, align 8
  %4 = getelementptr inbounds %"class.std::_String_val", %"class.std::_String_val"* %3, i32 0, i32 2
  %5 = load i64, i64* %4, align 8
  %6 = icmp ule i64 16, %5
  ret i1 %6
}

; Function Attrs: noinline nounwind optnone uwtable
define linkonce_odr dso_local nonnull align 1 dereferenceable(1) %"class.std::allocator"* @"?_Getal@?$basic_string@DU?$char_traits@D@std@@V?$allocator@D@2@@std@@AEAAAEAV?$allocator@D@2@XZ"(%"class.std::basic_string"* %0) #2 comdat align 2 {
  %2 = alloca %"class.std::basic_string"*, align 8
  store %"class.std::basic_string"* %0, %"class.std::basic_string"** %2, align 8
  %3 = load %"class.std::basic_string"*, %"class.std::basic_string"** %2, align 8
  %4 = getelementptr inbounds %"class.std::basic_string", %"class.std::basic_string"* %3, i32 0, i32 0
  %5 = call nonnull align 1 dereferenceable(1) %"class.std::allocator"* @"?_Get_first@?$_Compressed_pair@V?$allocator@D@std@@V?$_String_val@U?$_Simple_types@D@std@@@2@$00@std@@QEAAAEAV?$allocator@D@2@XZ"(%"class.std::_Compressed_pair"* %4) #3
  ret %"class.std::allocator"* %5
}

; Function Attrs: noinline nounwind optnone uwtable
define linkonce_odr dso_local void @"??$_Destroy_in_place@PEAD@std@@YAXAEAPEAD@Z"(i8** nonnull align 8 dereferenceable(8) %0) #2 comdat {
  %2 = alloca i8**, align 8
  store i8** %0, i8*** %2, align 8
  %3 = load i8**, i8*** %2, align 8
  ret void
}

; Function Attrs: noinline nounwind optnone uwtable
define linkonce_odr dso_local void @"?deallocate@?$allocator@D@std@@QEAAXQEAD_K@Z"(%"class.std::allocator"* %0, i8* %1, i64 %2) #2 comdat align 2 {
  %4 = alloca i64, align 8
  %5 = alloca i8*, align 8
  %6 = alloca %"class.std::allocator"*, align 8
  store i64 %2, i64* %4, align 8
  store i8* %1, i8** %5, align 8
  store %"class.std::allocator"* %0, %"class.std::allocator"** %6, align 8
  %7 = load %"class.std::allocator"*, %"class.std::allocator"** %6, align 8
  %8 = load i64, i64* %4, align 8
  %9 = mul i64 1, %8
  %10 = load i8*, i8** %5, align 8
  call void @"??$_Deallocate@$0BA@$0A@@std@@YAXPEAX_K@Z"(i8* %10, i64 %9) #3
  ret void
}

declare dso_local void @__std_terminate()

; Function Attrs: noinline nounwind optnone uwtable
define linkonce_odr dso_local void @"?assign@?$_Narrow_char_traits@DH@std@@SAXAEADAEBD@Z"(i8* nonnull align 1 dereferenceable(1) %0, i8* nonnull align 1 dereferenceable(1) %1) #2 comdat align 2 {
  %3 = alloca i8*, align 8
  %4 = alloca i8*, align 8
  store i8* %1, i8** %3, align 8
  store i8* %0, i8** %4, align 8
  %5 = load i8*, i8** %3, align 8
  %6 = load i8, i8* %5, align 1
  %7 = load i8*, i8** %4, align 8
  store i8 %6, i8* %7, align 1
  ret void
}

; Function Attrs: noinline nounwind optnone uwtable
define linkonce_odr dso_local nonnull align 1 dereferenceable(1) %"class.std::allocator"* @"?_Get_first@?$_Compressed_pair@V?$allocator@D@std@@V?$_String_val@U?$_Simple_types@D@std@@@2@$00@std@@QEAAAEAV?$allocator@D@2@XZ"(%"class.std::_Compressed_pair"* %0) #2 comdat align 2 {
  %2 = alloca %"class.std::_Compressed_pair"*, align 8
  store %"class.std::_Compressed_pair"* %0, %"class.std::_Compressed_pair"** %2, align 8
  %3 = load %"class.std::_Compressed_pair"*, %"class.std::_Compressed_pair"** %2, align 8
  %4 = bitcast %"class.std::_Compressed_pair"* %3 to %"class.std::allocator"*
  ret %"class.std::allocator"* %4
}

; Function Attrs: noinline nounwind optnone uwtable
define linkonce_odr dso_local void @"??$_Deallocate@$0BA@$0A@@std@@YAXPEAX_K@Z"(i8* %0, i64 %1) #2 comdat personality i8* bitcast (i32 (...)* @__CxxFrameHandler3 to i8*) {
  %3 = alloca i64, align 8
  %4 = alloca i8*, align 8
  store i64 %1, i64* %3, align 8
  store i8* %0, i8** %4, align 8
  %5 = load i64, i64* %3, align 8
  %6 = icmp uge i64 %5, 4096
  br i1 %6, label %7, label %9

7:                                                ; preds = %2
  invoke void @"?_Adjust_manually_vector_aligned@std@@YAXAEAPEAXAEA_K@Z"(i8** nonnull align 8 dereferenceable(8) %4, i64* nonnull align 8 dereferenceable(8) %3)
          to label %8 unwind label %12

8:                                                ; preds = %7
  br label %9

9:                                                ; preds = %8, %2
  %10 = load i64, i64* %3, align 8
  %11 = load i8*, i8** %4, align 8
  call void @"??3@YAXPEAX_K@Z"(i8* %11, i64 %10) #3
  ret void

12:                                               ; preds = %7
  %13 = cleanuppad within none []
  call void @__std_terminate() #15 [ "funclet"(token %13) ]
  unreachable
}

; Function Attrs: noinline optnone uwtable
define linkonce_odr dso_local void @"?_Adjust_manually_vector_aligned@std@@YAXAEAPEAXAEA_K@Z"(i8** nonnull align 8 dereferenceable(8) %0, i64* nonnull align 8 dereferenceable(8) %1) #1 comdat {
  %3 = alloca i64*, align 8
  %4 = alloca i8**, align 8
  %5 = alloca i64*, align 8
  %6 = alloca i64, align 8
  %7 = alloca i64, align 8
  %8 = alloca i64, align 8
  store i64* %1, i64** %3, align 8
  store i8** %0, i8*** %4, align 8
  %9 = load i64*, i64** %3, align 8
  %10 = load i64, i64* %9, align 8
  %11 = add i64 %10, 39
  store i64 %11, i64* %9, align 8
  %12 = load i8**, i8*** %4, align 8
  %13 = load i8*, i8** %12, align 8
  %14 = bitcast i8* %13 to i64*
  store i64* %14, i64** %5, align 8
  %15 = load i64*, i64** %5, align 8
  %16 = getelementptr inbounds i64, i64* %15, i64 -1
  %17 = load i64, i64* %16, align 8
  store i64 %17, i64* %6, align 8
  store i64 8, i64* %7, align 8
  %18 = load i8**, i8*** %4, align 8
  %19 = load i8*, i8** %18, align 8
  %20 = ptrtoint i8* %19 to i64
  %21 = load i64, i64* %6, align 8
  %22 = sub i64 %20, %21
  store i64 %22, i64* %8, align 8
  br label %23

23:                                               ; preds = %2
  %24 = load i64, i64* %8, align 8
  %25 = icmp uge i64 %24, 8
  br i1 %25, label %26, label %30

26:                                               ; preds = %23
  %27 = load i64, i64* %8, align 8
  %28 = icmp ule i64 %27, 39
  br i1 %28, label %29, label %30

29:                                               ; preds = %26
  br label %33

30:                                               ; preds = %26, %23
  br label %31

31:                                               ; preds = %30
  call void @_invalid_parameter_noinfo_noreturn() #14
  unreachable

32:                                               ; No predecessors!
  br label %33

33:                                               ; preds = %32, %29
  br label %34

34:                                               ; preds = %33
  %35 = load i64, i64* %6, align 8
  %36 = inttoptr i64 %35 to i8*
  %37 = load i8**, i8*** %4, align 8
  store i8* %36, i8** %37, align 8
  ret void
}

; Function Attrs: nounwind
declare dso_local void @"??3@YAXPEAX_K@Z"(i8*, i64) #9

; Function Attrs: noreturn
declare dso_local void @_invalid_parameter_noinfo_noreturn() #6

; Function Attrs: noinline nounwind optnone uwtable
define linkonce_odr dso_local void @"??1?$_String_val@U?$_Simple_types@D@std@@@std@@QEAA@XZ"(%"class.std::_String_val"* %0) unnamed_addr #2 comdat align 2 {
  %2 = alloca %"class.std::_String_val"*, align 8
  store %"class.std::_String_val"* %0, %"class.std::_String_val"** %2, align 8
  %3 = load %"class.std::_String_val"*, %"class.std::_String_val"** %2, align 8
  %4 = getelementptr inbounds %"class.std::_String_val", %"class.std::_String_val"* %3, i32 0, i32 0
  call void @"??1_Bxty@?$_String_val@U?$_Simple_types@D@std@@@std@@QEAA@XZ"(%"union.std::_String_val<std::_Simple_types<char>>::_Bxty"* %4) #3
  ret void
}

; Function Attrs: noinline nounwind optnone uwtable
define linkonce_odr dso_local void @"??1_Bxty@?$_String_val@U?$_Simple_types@D@std@@@std@@QEAA@XZ"(%"union.std::_String_val<std::_Simple_types<char>>::_Bxty"* %0) unnamed_addr #2 comdat align 2 {
  %2 = alloca %"union.std::_String_val<std::_Simple_types<char>>::_Bxty"*, align 8
  store %"union.std::_String_val<std::_Simple_types<char>>::_Bxty"* %0, %"union.std::_String_val<std::_Simple_types<char>>::_Bxty"** %2, align 8
  %3 = load %"union.std::_String_val<std::_Simple_types<char>>::_Bxty"*, %"union.std::_String_val<std::_Simple_types<char>>::_Bxty"** %2, align 8
  ret void
}

; Function Attrs: noinline nounwind optnone uwtable
define linkonce_odr dso_local %"class.std::_Compressed_pair"* @"??$?0$$V@?$_Compressed_pair@V?$allocator@D@std@@V?$_String_val@U?$_Simple_types@D@std@@@2@$00@std@@QEAA@U_Zero_then_variadic_args_t@1@@Z"(%"class.std::_Compressed_pair"* returned %0, i8 %1) unnamed_addr #2 comdat align 2 {
  %3 = alloca %"struct.std::_Zero_then_variadic_args_t", align 1
  %4 = alloca %"class.std::_Compressed_pair"*, align 8
  %5 = getelementptr inbounds %"struct.std::_Zero_then_variadic_args_t", %"struct.std::_Zero_then_variadic_args_t"* %3, i32 0, i32 0
  store i8 %1, i8* %5, align 1
  store %"class.std::_Compressed_pair"* %0, %"class.std::_Compressed_pair"** %4, align 8
  %6 = load %"class.std::_Compressed_pair"*, %"class.std::_Compressed_pair"** %4, align 8
  %7 = bitcast %"class.std::_Compressed_pair"* %6 to %"class.std::allocator"*
  %8 = call %"class.std::allocator"* @"??0?$allocator@D@std@@QEAA@XZ"(%"class.std::allocator"* %7) #3
  %9 = getelementptr inbounds %"class.std::_Compressed_pair", %"class.std::_Compressed_pair"* %6, i32 0, i32 0
  %10 = call %"class.std::_String_val"* @"??0?$_String_val@U?$_Simple_types@D@std@@@std@@QEAA@XZ"(%"class.std::_String_val"* %9) #3
  ret %"class.std::_Compressed_pair"* %6
}

; Function Attrs: noinline nounwind optnone uwtable
define linkonce_odr dso_local %"struct.std::_Fake_proxy_ptr_impl"* @"??0_Fake_proxy_ptr_impl@std@@QEAA@AEBU_Fake_allocator@1@AEBU_Container_base0@1@@Z"(%"struct.std::_Fake_proxy_ptr_impl"* returned %0, %"struct.std::_Fake_allocator"* nonnull align 1 dereferenceable(1) %1, %"struct.std::_Container_base0"* nonnull align 1 dereferenceable(1) %2) unnamed_addr #2 comdat align 2 {
  %4 = alloca %"struct.std::_Container_base0"*, align 8
  %5 = alloca %"struct.std::_Fake_allocator"*, align 8
  %6 = alloca %"struct.std::_Fake_proxy_ptr_impl"*, align 8
  store %"struct.std::_Container_base0"* %2, %"struct.std::_Container_base0"** %4, align 8
  store %"struct.std::_Fake_allocator"* %1, %"struct.std::_Fake_allocator"** %5, align 8
  store %"struct.std::_Fake_proxy_ptr_impl"* %0, %"struct.std::_Fake_proxy_ptr_impl"** %6, align 8
  %7 = load %"struct.std::_Fake_proxy_ptr_impl"*, %"struct.std::_Fake_proxy_ptr_impl"** %6, align 8
  ret %"struct.std::_Fake_proxy_ptr_impl"* %7
}

; Function Attrs: noinline nounwind optnone uwtable
define linkonce_odr dso_local void @"?_Tidy_init@?$basic_string@DU?$char_traits@D@std@@V?$allocator@D@2@@std@@AEAAXXZ"(%"class.std::basic_string"* %0) #2 comdat align 2 {
  %2 = alloca %"class.std::basic_string"*, align 8
  %3 = alloca i8, align 1
  store %"class.std::basic_string"* %0, %"class.std::basic_string"** %2, align 8
  %4 = load %"class.std::basic_string"*, %"class.std::basic_string"** %2, align 8
  %5 = getelementptr inbounds %"class.std::basic_string", %"class.std::basic_string"* %4, i32 0, i32 0
  %6 = getelementptr inbounds %"class.std::_Compressed_pair", %"class.std::_Compressed_pair"* %5, i32 0, i32 0
  %7 = getelementptr inbounds %"class.std::_String_val", %"class.std::_String_val"* %6, i32 0, i32 1
  store i64 0, i64* %7, align 8
  %8 = getelementptr inbounds %"class.std::basic_string", %"class.std::basic_string"* %4, i32 0, i32 0
  %9 = getelementptr inbounds %"class.std::_Compressed_pair", %"class.std::_Compressed_pair"* %8, i32 0, i32 0
  %10 = getelementptr inbounds %"class.std::_String_val", %"class.std::_String_val"* %9, i32 0, i32 2
  store i64 15, i64* %10, align 8
  store i8 0, i8* %3, align 1
  %11 = getelementptr inbounds %"class.std::basic_string", %"class.std::basic_string"* %4, i32 0, i32 0
  %12 = getelementptr inbounds %"class.std::_Compressed_pair", %"class.std::_Compressed_pair"* %11, i32 0, i32 0
  %13 = getelementptr inbounds %"class.std::_String_val", %"class.std::_String_val"* %12, i32 0, i32 0
  %14 = bitcast %"union.std::_String_val<std::_Simple_types<char>>::_Bxty"* %13 to [16 x i8]*
  %15 = getelementptr inbounds [16 x i8], [16 x i8]* %14, i64 0, i64 0
  call void @"?assign@?$_Narrow_char_traits@DH@std@@SAXAEADAEBD@Z"(i8* nonnull align 1 dereferenceable(1) %15, i8* nonnull align 1 dereferenceable(1) %3) #3
  ret void
}

; Function Attrs: noinline optnone uwtable
define linkonce_odr dso_local nonnull align 8 dereferenceable(32) %"class.std::basic_string"* @"?assign@?$basic_string@DU?$char_traits@D@std@@V?$allocator@D@2@@std@@QEAAAEAV12@QEBD@Z"(%"class.std::basic_string"* %0, i8* %1) #1 comdat align 2 {
  %3 = alloca i8*, align 8
  %4 = alloca %"class.std::basic_string"*, align 8
  store i8* %1, i8** %3, align 8
  store %"class.std::basic_string"* %0, %"class.std::basic_string"** %4, align 8
  %5 = load %"class.std::basic_string"*, %"class.std::basic_string"** %4, align 8
  %6 = load i8*, i8** %3, align 8
  %7 = call i64 @"?length@?$_Narrow_char_traits@DH@std@@SA_KQEBD@Z"(i8* %6) #3
  %8 = call i64 @"??$_Convert_size@_K@std@@YA_K_K@Z"(i64 %7) #3
  %9 = load i8*, i8** %3, align 8
  %10 = call nonnull align 8 dereferenceable(32) %"class.std::basic_string"* @"?assign@?$basic_string@DU?$char_traits@D@std@@V?$allocator@D@2@@std@@QEAAAEAV12@QEBD_K@Z"(%"class.std::basic_string"* %5, i8* %9, i64 %8)
  ret %"class.std::basic_string"* %10
}

; Function Attrs: noinline nounwind optnone uwtable
define linkonce_odr dso_local void @"?_Release@_Fake_proxy_ptr_impl@std@@QEAAXXZ"(%"struct.std::_Fake_proxy_ptr_impl"* %0) #2 comdat align 2 {
  %2 = alloca %"struct.std::_Fake_proxy_ptr_impl"*, align 8
  store %"struct.std::_Fake_proxy_ptr_impl"* %0, %"struct.std::_Fake_proxy_ptr_impl"** %2, align 8
  %3 = load %"struct.std::_Fake_proxy_ptr_impl"*, %"struct.std::_Fake_proxy_ptr_impl"** %2, align 8
  ret void
}

; Function Attrs: noinline nounwind optnone uwtable
define linkonce_odr dso_local %"class.std::allocator"* @"??0?$allocator@D@std@@QEAA@XZ"(%"class.std::allocator"* returned %0) unnamed_addr #2 comdat align 2 {
  %2 = alloca %"class.std::allocator"*, align 8
  store %"class.std::allocator"* %0, %"class.std::allocator"** %2, align 8
  %3 = load %"class.std::allocator"*, %"class.std::allocator"** %2, align 8
  ret %"class.std::allocator"* %3
}

; Function Attrs: noinline nounwind optnone uwtable
define linkonce_odr dso_local %"class.std::_String_val"* @"??0?$_String_val@U?$_Simple_types@D@std@@@std@@QEAA@XZ"(%"class.std::_String_val"* returned %0) unnamed_addr #2 comdat align 2 {
  %2 = alloca %"class.std::_String_val"*, align 8
  store %"class.std::_String_val"* %0, %"class.std::_String_val"** %2, align 8
  %3 = load %"class.std::_String_val"*, %"class.std::_String_val"** %2, align 8
  %4 = bitcast %"class.std::_String_val"* %3 to %"struct.std::_Container_base0"*
  %5 = getelementptr inbounds %"class.std::_String_val", %"class.std::_String_val"* %3, i32 0, i32 0
  %6 = call %"union.std::_String_val<std::_Simple_types<char>>::_Bxty"* @"??0_Bxty@?$_String_val@U?$_Simple_types@D@std@@@std@@QEAA@XZ"(%"union.std::_String_val<std::_Simple_types<char>>::_Bxty"* %5) #3
  %7 = getelementptr inbounds %"class.std::_String_val", %"class.std::_String_val"* %3, i32 0, i32 1
  store i64 0, i64* %7, align 8
  %8 = getelementptr inbounds %"class.std::_String_val", %"class.std::_String_val"* %3, i32 0, i32 2
  store i64 0, i64* %8, align 8
  ret %"class.std::_String_val"* %3
}

; Function Attrs: noinline nounwind optnone uwtable
define linkonce_odr dso_local %"union.std::_String_val<std::_Simple_types<char>>::_Bxty"* @"??0_Bxty@?$_String_val@U?$_Simple_types@D@std@@@std@@QEAA@XZ"(%"union.std::_String_val<std::_Simple_types<char>>::_Bxty"* returned %0) unnamed_addr #2 comdat align 2 {
  %2 = alloca %"union.std::_String_val<std::_Simple_types<char>>::_Bxty"*, align 8
  store %"union.std::_String_val<std::_Simple_types<char>>::_Bxty"* %0, %"union.std::_String_val<std::_Simple_types<char>>::_Bxty"** %2, align 8
  %3 = load %"union.std::_String_val<std::_Simple_types<char>>::_Bxty"*, %"union.std::_String_val<std::_Simple_types<char>>::_Bxty"** %2, align 8
  ret %"union.std::_String_val<std::_Simple_types<char>>::_Bxty"* %3
}

; Function Attrs: noinline optnone uwtable
define linkonce_odr dso_local nonnull align 8 dereferenceable(32) %"class.std::basic_string"* @"?assign@?$basic_string@DU?$char_traits@D@std@@V?$allocator@D@2@@std@@QEAAAEAV12@QEBD_K@Z"(%"class.std::basic_string"* %0, i8* %1, i64 %2) #1 comdat align 2 {
  %4 = alloca %"class.std::basic_string"*, align 8
  %5 = alloca i64, align 8
  %6 = alloca i8*, align 8
  %7 = alloca %"class.std::basic_string"*, align 8
  %8 = alloca i8*, align 8
  %9 = alloca i8, align 1
  %10 = alloca %class.anon, align 1
  store i64 %2, i64* %5, align 8
  store i8* %1, i8** %6, align 8
  store %"class.std::basic_string"* %0, %"class.std::basic_string"** %7, align 8
  %11 = load %"class.std::basic_string"*, %"class.std::basic_string"** %7, align 8
  %12 = load i64, i64* %5, align 8
  %13 = getelementptr inbounds %"class.std::basic_string", %"class.std::basic_string"* %11, i32 0, i32 0
  %14 = getelementptr inbounds %"class.std::_Compressed_pair", %"class.std::_Compressed_pair"* %13, i32 0, i32 0
  %15 = getelementptr inbounds %"class.std::_String_val", %"class.std::_String_val"* %14, i32 0, i32 2
  %16 = load i64, i64* %15, align 8
  %17 = icmp ule i64 %12, %16
  br i1 %17, label %18, label %33

18:                                               ; preds = %3
  %19 = getelementptr inbounds %"class.std::basic_string", %"class.std::basic_string"* %11, i32 0, i32 0
  %20 = getelementptr inbounds %"class.std::_Compressed_pair", %"class.std::_Compressed_pair"* %19, i32 0, i32 0
  %21 = call i8* @"?_Myptr@?$_String_val@U?$_Simple_types@D@std@@@std@@QEAAPEADXZ"(%"class.std::_String_val"* %20) #3
  store i8* %21, i8** %8, align 8
  %22 = load i64, i64* %5, align 8
  %23 = getelementptr inbounds %"class.std::basic_string", %"class.std::basic_string"* %11, i32 0, i32 0
  %24 = getelementptr inbounds %"class.std::_Compressed_pair", %"class.std::_Compressed_pair"* %23, i32 0, i32 0
  %25 = getelementptr inbounds %"class.std::_String_val", %"class.std::_String_val"* %24, i32 0, i32 1
  store i64 %22, i64* %25, align 8
  %26 = load i64, i64* %5, align 8
  %27 = load i8*, i8** %6, align 8
  %28 = load i8*, i8** %8, align 8
  %29 = call i8* @"?move@?$_Char_traits@DH@std@@SAPEADQEADQEBD_K@Z"(i8* %28, i8* %27, i64 %26) #3
  store i8 0, i8* %9, align 1
  %30 = load i8*, i8** %8, align 8
  %31 = load i64, i64* %5, align 8
  %32 = getelementptr inbounds i8, i8* %30, i64 %31
  call void @"?assign@?$_Narrow_char_traits@DH@std@@SAXAEADAEBD@Z"(i8* nonnull align 1 dereferenceable(1) %32, i8* nonnull align 1 dereferenceable(1) %9) #3
  store %"class.std::basic_string"* %11, %"class.std::basic_string"** %4, align 8
  br label %39

33:                                               ; preds = %3
  %34 = load i8*, i8** %6, align 8
  %35 = load i64, i64* %5, align 8
  %36 = getelementptr inbounds %class.anon, %class.anon* %10, i32 0, i32 0
  %37 = load i8, i8* %36, align 1
  %38 = call nonnull align 8 dereferenceable(32) %"class.std::basic_string"* @"??$_Reallocate_for@V<lambda_1>@?0??assign@?$basic_string@DU?$char_traits@D@std@@V?$allocator@D@2@@std@@QEAAAEAV34@QEBD_K@Z@PEBD@?$basic_string@DU?$char_traits@D@std@@V?$allocator@D@2@@std@@AEAAAEAV01@_KV<lambda_1>@?0??assign@01@QEAAAEAV01@QEBD0@Z@PEBD@Z"(%"class.std::basic_string"* %11, i64 %35, i8 %37, i8* %34)
  store %"class.std::basic_string"* %38, %"class.std::basic_string"** %4, align 8
  br label %39

39:                                               ; preds = %33, %18
  %40 = load %"class.std::basic_string"*, %"class.std::basic_string"** %4, align 8
  ret %"class.std::basic_string"* %40
}

; Function Attrs: noinline nounwind optnone uwtable
define linkonce_odr dso_local i64 @"??$_Convert_size@_K@std@@YA_K_K@Z"(i64 %0) #2 comdat {
  %2 = alloca i64, align 8
  store i64 %0, i64* %2, align 8
  %3 = load i64, i64* %2, align 8
  ret i64 %3
}

; Function Attrs: noinline nounwind optnone uwtable
define linkonce_odr dso_local i64 @"?length@?$_Narrow_char_traits@DH@std@@SA_KQEBD@Z"(i8* %0) #2 comdat align 2 personality i8* bitcast (i32 (...)* @__CxxFrameHandler3 to i8*) {
  %2 = alloca i8*, align 8
  store i8* %0, i8** %2, align 8
  %3 = load i8*, i8** %2, align 8
  %4 = invoke i64 @strlen(i8* %3)
          to label %5 unwind label %6

5:                                                ; preds = %1
  ret i64 %4

6:                                                ; preds = %1
  %7 = cleanuppad within none []
  call void @__std_terminate() #15 [ "funclet"(token %7) ]
  unreachable
}

; Function Attrs: noinline nounwind optnone uwtable
define linkonce_odr dso_local i8* @"?_Myptr@?$_String_val@U?$_Simple_types@D@std@@@std@@QEAAPEADXZ"(%"class.std::_String_val"* %0) #2 comdat align 2 {
  %2 = alloca %"class.std::_String_val"*, align 8
  %3 = alloca i8*, align 8
  store %"class.std::_String_val"* %0, %"class.std::_String_val"** %2, align 8
  %4 = load %"class.std::_String_val"*, %"class.std::_String_val"** %2, align 8
  %5 = getelementptr inbounds %"class.std::_String_val", %"class.std::_String_val"* %4, i32 0, i32 0
  %6 = bitcast %"union.std::_String_val<std::_Simple_types<char>>::_Bxty"* %5 to [16 x i8]*
  %7 = getelementptr inbounds [16 x i8], [16 x i8]* %6, i64 0, i64 0
  store i8* %7, i8** %3, align 8
  %8 = call zeroext i1 @"?_Large_string_engaged@?$_String_val@U?$_Simple_types@D@std@@@std@@QEBA_NXZ"(%"class.std::_String_val"* %4) #3
  br i1 %8, label %9, label %14

9:                                                ; preds = %1
  %10 = getelementptr inbounds %"class.std::_String_val", %"class.std::_String_val"* %4, i32 0, i32 0
  %11 = bitcast %"union.std::_String_val<std::_Simple_types<char>>::_Bxty"* %10 to i8**
  %12 = load i8*, i8** %11, align 8
  %13 = call i8* @"??$_Unfancy@D@std@@YAPEADPEAD@Z"(i8* %12) #3
  store i8* %13, i8** %3, align 8
  br label %14

14:                                               ; preds = %9, %1
  %15 = load i8*, i8** %3, align 8
  ret i8* %15
}

; Function Attrs: noinline nounwind optnone uwtable
define linkonce_odr dso_local i8* @"?move@?$_Char_traits@DH@std@@SAPEADQEADQEBD_K@Z"(i8* %0, i8* %1, i64 %2) #2 comdat align 2 {
  %4 = alloca i64, align 8
  %5 = alloca i8*, align 8
  %6 = alloca i8*, align 8
  store i64 %2, i64* %4, align 8
  store i8* %1, i8** %5, align 8
  store i8* %0, i8** %6, align 8
  %7 = load i8*, i8** %6, align 8
  %8 = load i8*, i8** %5, align 8
  %9 = load i64, i64* %4, align 8
  %10 = mul i64 %9, 1
  call void @llvm.memmove.p0i8.p0i8.i64(i8* align 1 %7, i8* align 1 %8, i64 %10, i1 false)
  %11 = load i8*, i8** %6, align 8
  ret i8* %11
}

; Function Attrs: noinline optnone uwtable
define linkonce_odr dso_local nonnull align 8 dereferenceable(32) %"class.std::basic_string"* @"??$_Reallocate_for@V<lambda_1>@?0??assign@?$basic_string@DU?$char_traits@D@std@@V?$allocator@D@2@@std@@QEAAAEAV34@QEBD_K@Z@PEBD@?$basic_string@DU?$char_traits@D@std@@V?$allocator@D@2@@std@@AEAAAEAV01@_KV<lambda_1>@?0??assign@01@QEAAAEAV01@QEBD0@Z@PEBD@Z"(%"class.std::basic_string"* %0, i64 %1, i8 %2, i8* %3) #1 comdat align 2 {
  %5 = alloca %class.anon, align 1
  %6 = alloca i8*, align 8
  %7 = alloca i64, align 8
  %8 = alloca %"class.std::basic_string"*, align 8
  %9 = alloca i64, align 8
  %10 = alloca i64, align 8
  %11 = alloca %"class.std::allocator"*, align 8
  %12 = alloca i8*, align 8
  %13 = getelementptr inbounds %class.anon, %class.anon* %5, i32 0, i32 0
  store i8 %2, i8* %13, align 1
  store i8* %3, i8** %6, align 8
  store i64 %1, i64* %7, align 8
  store %"class.std::basic_string"* %0, %"class.std::basic_string"** %8, align 8
  %14 = load %"class.std::basic_string"*, %"class.std::basic_string"** %8, align 8
  %15 = load i64, i64* %7, align 8
  %16 = call i64 @"?max_size@?$basic_string@DU?$char_traits@D@std@@V?$allocator@D@2@@std@@QEBA_KXZ"(%"class.std::basic_string"* %14) #3
  %17 = icmp ugt i64 %15, %16
  br i1 %17, label %18, label %19

18:                                               ; preds = %4
  call void @"?_Xlen_string@std@@YAXXZ"() #14
  unreachable

19:                                               ; preds = %4
  %20 = getelementptr inbounds %"class.std::basic_string", %"class.std::basic_string"* %14, i32 0, i32 0
  %21 = getelementptr inbounds %"class.std::_Compressed_pair", %"class.std::_Compressed_pair"* %20, i32 0, i32 0
  %22 = getelementptr inbounds %"class.std::_String_val", %"class.std::_String_val"* %21, i32 0, i32 2
  %23 = load i64, i64* %22, align 8
  store i64 %23, i64* %9, align 8
  %24 = load i64, i64* %7, align 8
  %25 = call i64 @"?_Calculate_growth@?$basic_string@DU?$char_traits@D@std@@V?$allocator@D@2@@std@@AEBA_K_K@Z"(%"class.std::basic_string"* %14, i64 %24) #3
  store i64 %25, i64* %10, align 8
  %26 = call nonnull align 1 dereferenceable(1) %"class.std::allocator"* @"?_Getal@?$basic_string@DU?$char_traits@D@std@@V?$allocator@D@2@@std@@AEAAAEAV?$allocator@D@2@XZ"(%"class.std::basic_string"* %14) #3
  store %"class.std::allocator"* %26, %"class.std::allocator"** %11, align 8
  %27 = load %"class.std::allocator"*, %"class.std::allocator"** %11, align 8
  %28 = load i64, i64* %10, align 8
  %29 = add i64 %28, 1
  %30 = call i8* @"?allocate@?$allocator@D@std@@QEAAPEAD_K@Z"(%"class.std::allocator"* %27, i64 %29)
  store i8* %30, i8** %12, align 8
  %31 = getelementptr inbounds %"class.std::basic_string", %"class.std::basic_string"* %14, i32 0, i32 0
  %32 = getelementptr inbounds %"class.std::_Compressed_pair", %"class.std::_Compressed_pair"* %31, i32 0, i32 0
  %33 = bitcast %"class.std::_String_val"* %32 to %"struct.std::_Container_base0"*
  call void @"?_Orphan_all@_Container_base0@std@@QEAAXXZ"(%"struct.std::_Container_base0"* %33) #3
  %34 = load i64, i64* %7, align 8
  %35 = getelementptr inbounds %"class.std::basic_string", %"class.std::basic_string"* %14, i32 0, i32 0
  %36 = getelementptr inbounds %"class.std::_Compressed_pair", %"class.std::_Compressed_pair"* %35, i32 0, i32 0
  %37 = getelementptr inbounds %"class.std::_String_val", %"class.std::_String_val"* %36, i32 0, i32 1
  store i64 %34, i64* %37, align 8
  %38 = load i64, i64* %10, align 8
  %39 = getelementptr inbounds %"class.std::basic_string", %"class.std::basic_string"* %14, i32 0, i32 0
  %40 = getelementptr inbounds %"class.std::_Compressed_pair", %"class.std::_Compressed_pair"* %39, i32 0, i32 0
  %41 = getelementptr inbounds %"class.std::_String_val", %"class.std::_String_val"* %40, i32 0, i32 2
  store i64 %38, i64* %41, align 8
  %42 = load i8*, i8** %6, align 8
  %43 = load i64, i64* %7, align 8
  %44 = load i8*, i8** %12, align 8
  %45 = call i8* @"??$_Unfancy@D@std@@YAPEADPEAD@Z"(i8* %44) #3
  call void @"??R<lambda_1>@?0??assign@?$basic_string@DU?$char_traits@D@std@@V?$allocator@D@2@@std@@QEAAAEAV23@QEBD_K@Z@QEBA?A?<auto>@@QEAD10@Z"(%class.anon* %5, i8* %45, i64 %43, i8* %42)
  %46 = load i64, i64* %9, align 8
  %47 = icmp ule i64 16, %46
  br i1 %47, label %48, label %62

48:                                               ; preds = %19
  %49 = load %"class.std::allocator"*, %"class.std::allocator"** %11, align 8
  %50 = load i64, i64* %9, align 8
  %51 = add i64 %50, 1
  %52 = getelementptr inbounds %"class.std::basic_string", %"class.std::basic_string"* %14, i32 0, i32 0
  %53 = getelementptr inbounds %"class.std::_Compressed_pair", %"class.std::_Compressed_pair"* %52, i32 0, i32 0
  %54 = getelementptr inbounds %"class.std::_String_val", %"class.std::_String_val"* %53, i32 0, i32 0
  %55 = bitcast %"union.std::_String_val<std::_Simple_types<char>>::_Bxty"* %54 to i8**
  %56 = load i8*, i8** %55, align 8
  call void @"?deallocate@?$allocator@D@std@@QEAAXQEAD_K@Z"(%"class.std::allocator"* %49, i8* %56, i64 %51)
  %57 = load i8*, i8** %12, align 8
  %58 = getelementptr inbounds %"class.std::basic_string", %"class.std::basic_string"* %14, i32 0, i32 0
  %59 = getelementptr inbounds %"class.std::_Compressed_pair", %"class.std::_Compressed_pair"* %58, i32 0, i32 0
  %60 = getelementptr inbounds %"class.std::_String_val", %"class.std::_String_val"* %59, i32 0, i32 0
  %61 = bitcast %"union.std::_String_val<std::_Simple_types<char>>::_Bxty"* %60 to i8**
  store i8* %57, i8** %61, align 8
  br label %67

62:                                               ; preds = %19
  %63 = getelementptr inbounds %"class.std::basic_string", %"class.std::basic_string"* %14, i32 0, i32 0
  %64 = getelementptr inbounds %"class.std::_Compressed_pair", %"class.std::_Compressed_pair"* %63, i32 0, i32 0
  %65 = getelementptr inbounds %"class.std::_String_val", %"class.std::_String_val"* %64, i32 0, i32 0
  %66 = bitcast %"union.std::_String_val<std::_Simple_types<char>>::_Bxty"* %65 to i8**
  call void @"??$_Construct_in_place@PEADAEBQEAD@std@@YAXAEAPEADAEBQEAD@Z"(i8** nonnull align 8 dereferenceable(8) %66, i8** nonnull align 8 dereferenceable(8) %12) #3
  br label %67

67:                                               ; preds = %62, %48
  ret %"class.std::basic_string"* %14
}

; Function Attrs: noinline nounwind optnone uwtable
define linkonce_odr dso_local i8* @"??$_Unfancy@D@std@@YAPEADPEAD@Z"(i8* %0) #2 comdat {
  %2 = alloca i8*, align 8
  store i8* %0, i8** %2, align 8
  %3 = load i8*, i8** %2, align 8
  ret i8* %3
}

; Function Attrs: argmemonly nounwind willreturn
declare void @llvm.memmove.p0i8.p0i8.i64(i8* nocapture, i8* nocapture readonly, i64, i1 immarg) #7

; Function Attrs: noinline nounwind optnone uwtable
define linkonce_odr dso_local i64 @"?max_size@?$basic_string@DU?$char_traits@D@std@@V?$allocator@D@2@@std@@QEBA_KXZ"(%"class.std::basic_string"* %0) #2 comdat align 2 {
  %2 = alloca %"class.std::basic_string"*, align 8
  %3 = alloca i64, align 8
  %4 = alloca i64, align 8
  %5 = alloca i64, align 8
  %6 = alloca i64, align 8
  %7 = alloca i64, align 8
  store %"class.std::basic_string"* %0, %"class.std::basic_string"** %2, align 8
  %8 = load %"class.std::basic_string"*, %"class.std::basic_string"** %2, align 8
  %9 = call nonnull align 1 dereferenceable(1) %"class.std::allocator"* @"?_Getal@?$basic_string@DU?$char_traits@D@std@@V?$allocator@D@2@@std@@AEBAAEBV?$allocator@D@2@XZ"(%"class.std::basic_string"* %8) #3
  %10 = call i64 @"?max_size@?$_Default_allocator_traits@V?$allocator@D@std@@@std@@SA_KAEBV?$allocator@D@2@@Z"(%"class.std::allocator"* nonnull align 1 dereferenceable(1) %9) #3
  store i64 %10, i64* %3, align 8
  store i64 16, i64* %5, align 8
  %11 = call nonnull align 8 dereferenceable(8) i64* @"??$max@_K@std@@YAAEB_KAEB_K0@Z"(i64* nonnull align 8 dereferenceable(8) %3, i64* nonnull align 8 dereferenceable(8) %5) #3
  %12 = load i64, i64* %11, align 8
  store i64 %12, i64* %4, align 8
  %13 = load i64, i64* %4, align 8
  %14 = sub i64 %13, 1
  store i64 %14, i64* %6, align 8
  %15 = call i64 @"?max@?$numeric_limits@_J@std@@SA_JXZ"() #3
  store i64 %15, i64* %7, align 8
  %16 = call nonnull align 8 dereferenceable(8) i64* @"??$min@_K@std@@YAAEB_KAEB_K0@Z"(i64* nonnull align 8 dereferenceable(8) %7, i64* nonnull align 8 dereferenceable(8) %6) #3
  %17 = load i64, i64* %16, align 8
  ret i64 %17
}

; Function Attrs: noinline noreturn optnone uwtable
define linkonce_odr dso_local void @"?_Xlen_string@std@@YAXXZ"() #10 comdat {
  call void @"?_Xlength_error@std@@YAXPEBD@Z"(i8* getelementptr inbounds ([16 x i8], [16 x i8]* @"??_C@_0BA@JFNIOLAK@string?5too?5long?$AA@", i64 0, i64 0)) #14
  unreachable
}

; Function Attrs: noinline nounwind optnone uwtable
define linkonce_odr dso_local i64 @"?_Calculate_growth@?$basic_string@DU?$char_traits@D@std@@V?$allocator@D@2@@std@@AEBA_K_K@Z"(%"class.std::basic_string"* %0, i64 %1) #2 comdat align 2 {
  %3 = alloca i64, align 8
  %4 = alloca %"class.std::basic_string"*, align 8
  store i64 %1, i64* %3, align 8
  store %"class.std::basic_string"* %0, %"class.std::basic_string"** %4, align 8
  %5 = load %"class.std::basic_string"*, %"class.std::basic_string"** %4, align 8
  %6 = call i64 @"?max_size@?$basic_string@DU?$char_traits@D@std@@V?$allocator@D@2@@std@@QEBA_KXZ"(%"class.std::basic_string"* %5) #3
  %7 = getelementptr inbounds %"class.std::basic_string", %"class.std::basic_string"* %5, i32 0, i32 0
  %8 = getelementptr inbounds %"class.std::_Compressed_pair", %"class.std::_Compressed_pair"* %7, i32 0, i32 0
  %9 = getelementptr inbounds %"class.std::_String_val", %"class.std::_String_val"* %8, i32 0, i32 2
  %10 = load i64, i64* %9, align 8
  %11 = load i64, i64* %3, align 8
  %12 = call i64 @"?_Calculate_growth@?$basic_string@DU?$char_traits@D@std@@V?$allocator@D@2@@std@@CA_K_K00@Z"(i64 %11, i64 %10, i64 %6) #3
  ret i64 %12
}

; Function Attrs: noinline optnone uwtable
define linkonce_odr dso_local i8* @"?allocate@?$allocator@D@std@@QEAAPEAD_K@Z"(%"class.std::allocator"* %0, i64 %1) #1 comdat align 2 {
  %3 = alloca i64, align 8
  %4 = alloca %"class.std::allocator"*, align 8
  store i64 %1, i64* %3, align 8
  store %"class.std::allocator"* %0, %"class.std::allocator"** %4, align 8
  %5 = load %"class.std::allocator"*, %"class.std::allocator"** %4, align 8
  %6 = load i64, i64* %3, align 8
  %7 = call i64 @"??$_Get_size_of_n@$00@std@@YA_K_K@Z"(i64 %6)
  %8 = call i8* @"??$_Allocate@$0BA@U_Default_allocate_traits@std@@$0A@@std@@YAPEAX_K@Z"(i64 %7)
  ret i8* %8
}

; Function Attrs: noinline nounwind optnone uwtable
define linkonce_odr dso_local void @"??R<lambda_1>@?0??assign@?$basic_string@DU?$char_traits@D@std@@V?$allocator@D@2@@std@@QEAAAEAV23@QEBD_K@Z@QEBA?A?<auto>@@QEAD10@Z"(%class.anon* %0, i8* %1, i64 %2, i8* %3) #2 comdat align 2 {
  %5 = alloca i8*, align 8
  %6 = alloca i64, align 8
  %7 = alloca i8*, align 8
  %8 = alloca %class.anon*, align 8
  %9 = alloca i8, align 1
  store i8* %3, i8** %5, align 8
  store i64 %2, i64* %6, align 8
  store i8* %1, i8** %7, align 8
  store %class.anon* %0, %class.anon** %8, align 8
  %10 = load %class.anon*, %class.anon** %8, align 8
  %11 = load i64, i64* %6, align 8
  %12 = load i8*, i8** %5, align 8
  %13 = load i8*, i8** %7, align 8
  %14 = call i8* @"?copy@?$_Char_traits@DH@std@@SAPEADQEADQEBD_K@Z"(i8* %13, i8* %12, i64 %11) #3
  store i8 0, i8* %9, align 1
  %15 = load i8*, i8** %7, align 8
  %16 = load i64, i64* %6, align 8
  %17 = getelementptr inbounds i8, i8* %15, i64 %16
  call void @"?assign@?$_Narrow_char_traits@DH@std@@SAXAEADAEBD@Z"(i8* nonnull align 1 dereferenceable(1) %17, i8* nonnull align 1 dereferenceable(1) %9) #3
  ret void
}

; Function Attrs: noinline nounwind optnone uwtable
define linkonce_odr dso_local void @"??$_Construct_in_place@PEADAEBQEAD@std@@YAXAEAPEADAEBQEAD@Z"(i8** nonnull align 8 dereferenceable(8) %0, i8** nonnull align 8 dereferenceable(8) %1) #2 comdat {
  %3 = alloca i8**, align 8
  %4 = alloca i8**, align 8
  store i8** %1, i8*** %3, align 8
  store i8** %0, i8*** %4, align 8
  %5 = load i8**, i8*** %4, align 8
  %6 = call i8** @"??$addressof@PEAD@std@@YAPEAPEADAEAPEAD@Z"(i8** nonnull align 8 dereferenceable(8) %5) #3
  %7 = bitcast i8** %6 to i8*
  %8 = bitcast i8* %7 to i8**
  %9 = load i8**, i8*** %3, align 8
  %10 = call nonnull align 8 dereferenceable(8) i8** @"??$forward@AEBQEAD@std@@YAAEBQEADAEBQEAD@Z"(i8** nonnull align 8 dereferenceable(8) %9) #3
  %11 = load i8*, i8** %10, align 8
  store i8* %11, i8** %8, align 8
  ret void
}

; Function Attrs: noinline nounwind optnone uwtable
define linkonce_odr dso_local i64 @"?max_size@?$_Default_allocator_traits@V?$allocator@D@std@@@std@@SA_KAEBV?$allocator@D@2@@Z"(%"class.std::allocator"* nonnull align 1 dereferenceable(1) %0) #2 comdat align 2 {
  %2 = alloca %"class.std::allocator"*, align 8
  store %"class.std::allocator"* %0, %"class.std::allocator"** %2, align 8
  ret i64 -1
}

; Function Attrs: noinline nounwind optnone uwtable
define linkonce_odr dso_local nonnull align 1 dereferenceable(1) %"class.std::allocator"* @"?_Getal@?$basic_string@DU?$char_traits@D@std@@V?$allocator@D@2@@std@@AEBAAEBV?$allocator@D@2@XZ"(%"class.std::basic_string"* %0) #2 comdat align 2 {
  %2 = alloca %"class.std::basic_string"*, align 8
  store %"class.std::basic_string"* %0, %"class.std::basic_string"** %2, align 8
  %3 = load %"class.std::basic_string"*, %"class.std::basic_string"** %2, align 8
  %4 = getelementptr inbounds %"class.std::basic_string", %"class.std::basic_string"* %3, i32 0, i32 0
  %5 = call nonnull align 1 dereferenceable(1) %"class.std::allocator"* @"?_Get_first@?$_Compressed_pair@V?$allocator@D@std@@V?$_String_val@U?$_Simple_types@D@std@@@2@$00@std@@QEBAAEBV?$allocator@D@2@XZ"(%"class.std::_Compressed_pair"* %4) #3
  ret %"class.std::allocator"* %5
}

; Function Attrs: noinline nounwind optnone uwtable
define linkonce_odr dso_local nonnull align 8 dereferenceable(8) i64* @"??$max@_K@std@@YAAEB_KAEB_K0@Z"(i64* nonnull align 8 dereferenceable(8) %0, i64* nonnull align 8 dereferenceable(8) %1) #2 comdat {
  %3 = alloca i64*, align 8
  %4 = alloca i64*, align 8
  store i64* %1, i64** %3, align 8
  store i64* %0, i64** %4, align 8
  %5 = load i64*, i64** %4, align 8
  %6 = load i64, i64* %5, align 8
  %7 = load i64*, i64** %3, align 8
  %8 = load i64, i64* %7, align 8
  %9 = icmp ult i64 %6, %8
  br i1 %9, label %10, label %12

10:                                               ; preds = %2
  %11 = load i64*, i64** %3, align 8
  br label %14

12:                                               ; preds = %2
  %13 = load i64*, i64** %4, align 8
  br label %14

14:                                               ; preds = %12, %10
  %15 = phi i64* [ %11, %10 ], [ %13, %12 ]
  ret i64* %15
}

; Function Attrs: noinline nounwind optnone uwtable
define linkonce_odr dso_local nonnull align 8 dereferenceable(8) i64* @"??$min@_K@std@@YAAEB_KAEB_K0@Z"(i64* nonnull align 8 dereferenceable(8) %0, i64* nonnull align 8 dereferenceable(8) %1) #2 comdat {
  %3 = alloca i64*, align 8
  %4 = alloca i64*, align 8
  store i64* %1, i64** %3, align 8
  store i64* %0, i64** %4, align 8
  %5 = load i64*, i64** %3, align 8
  %6 = load i64, i64* %5, align 8
  %7 = load i64*, i64** %4, align 8
  %8 = load i64, i64* %7, align 8
  %9 = icmp ult i64 %6, %8
  br i1 %9, label %10, label %12

10:                                               ; preds = %2
  %11 = load i64*, i64** %3, align 8
  br label %14

12:                                               ; preds = %2
  %13 = load i64*, i64** %4, align 8
  br label %14

14:                                               ; preds = %12, %10
  %15 = phi i64* [ %11, %10 ], [ %13, %12 ]
  ret i64* %15
}

; Function Attrs: noinline nounwind optnone uwtable
define linkonce_odr dso_local i64 @"?max@?$numeric_limits@_J@std@@SA_JXZ"() #2 comdat align 2 {
  ret i64 9223372036854775807
}

; Function Attrs: noinline nounwind optnone uwtable
define linkonce_odr dso_local nonnull align 1 dereferenceable(1) %"class.std::allocator"* @"?_Get_first@?$_Compressed_pair@V?$allocator@D@std@@V?$_String_val@U?$_Simple_types@D@std@@@2@$00@std@@QEBAAEBV?$allocator@D@2@XZ"(%"class.std::_Compressed_pair"* %0) #2 comdat align 2 {
  %2 = alloca %"class.std::_Compressed_pair"*, align 8
  store %"class.std::_Compressed_pair"* %0, %"class.std::_Compressed_pair"** %2, align 8
  %3 = load %"class.std::_Compressed_pair"*, %"class.std::_Compressed_pair"** %2, align 8
  %4 = bitcast %"class.std::_Compressed_pair"* %3 to %"class.std::allocator"*
  ret %"class.std::allocator"* %4
}

; Function Attrs: noreturn
declare dso_local void @"?_Xlength_error@std@@YAXPEBD@Z"(i8*) #6

; Function Attrs: noinline nounwind optnone uwtable
define linkonce_odr dso_local i64 @"?_Calculate_growth@?$basic_string@DU?$char_traits@D@std@@V?$allocator@D@2@@std@@CA_K_K00@Z"(i64 %0, i64 %1, i64 %2) #2 comdat align 2 {
  %4 = alloca i64, align 8
  %5 = alloca i64, align 8
  %6 = alloca i64, align 8
  %7 = alloca i64, align 8
  %8 = alloca i64, align 8
  %9 = alloca i64, align 8
  store i64 %2, i64* %5, align 8
  store i64 %1, i64* %6, align 8
  store i64 %0, i64* %7, align 8
  %10 = load i64, i64* %7, align 8
  %11 = or i64 %10, 15
  store i64 %11, i64* %8, align 8
  %12 = load i64, i64* %8, align 8
  %13 = load i64, i64* %5, align 8
  %14 = icmp ugt i64 %12, %13
  br i1 %14, label %15, label %17

15:                                               ; preds = %3
  %16 = load i64, i64* %5, align 8
  store i64 %16, i64* %4, align 8
  br label %33

17:                                               ; preds = %3
  %18 = load i64, i64* %6, align 8
  %19 = load i64, i64* %5, align 8
  %20 = load i64, i64* %6, align 8
  %21 = udiv i64 %20, 2
  %22 = sub i64 %19, %21
  %23 = icmp ugt i64 %18, %22
  br i1 %23, label %24, label %26

24:                                               ; preds = %17
  %25 = load i64, i64* %5, align 8
  store i64 %25, i64* %4, align 8
  br label %33

26:                                               ; preds = %17
  %27 = load i64, i64* %6, align 8
  %28 = load i64, i64* %6, align 8
  %29 = udiv i64 %28, 2
  %30 = add i64 %27, %29
  store i64 %30, i64* %9, align 8
  %31 = call nonnull align 8 dereferenceable(8) i64* @"??$max@_K@std@@YAAEB_KAEB_K0@Z"(i64* nonnull align 8 dereferenceable(8) %8, i64* nonnull align 8 dereferenceable(8) %9) #3
  %32 = load i64, i64* %31, align 8
  store i64 %32, i64* %4, align 8
  br label %33

33:                                               ; preds = %26, %24, %15
  %34 = load i64, i64* %4, align 8
  ret i64 %34
}

; Function Attrs: noinline optnone uwtable
define linkonce_odr dso_local i8* @"??$_Allocate@$0BA@U_Default_allocate_traits@std@@$0A@@std@@YAPEAX_K@Z"(i64 %0) #1 comdat {
  %2 = alloca i8*, align 8
  %3 = alloca i64, align 8
  store i64 %0, i64* %3, align 8
  %4 = load i64, i64* %3, align 8
  %5 = icmp uge i64 %4, 4096
  br i1 %5, label %6, label %9

6:                                                ; preds = %1
  %7 = load i64, i64* %3, align 8
  %8 = call i8* @"??$_Allocate_manually_vector_aligned@U_Default_allocate_traits@std@@@std@@YAPEAX_K@Z"(i64 %7)
  store i8* %8, i8** %2, align 8
  br label %16

9:                                                ; preds = %1
  %10 = load i64, i64* %3, align 8
  %11 = icmp ne i64 %10, 0
  br i1 %11, label %12, label %15

12:                                               ; preds = %9
  %13 = load i64, i64* %3, align 8
  %14 = call i8* @"?_Allocate@_Default_allocate_traits@std@@SAPEAX_K@Z"(i64 %13)
  store i8* %14, i8** %2, align 8
  br label %16

15:                                               ; preds = %9
  store i8* null, i8** %2, align 8
  br label %16

16:                                               ; preds = %15, %12, %6
  %17 = load i8*, i8** %2, align 8
  ret i8* %17
}

; Function Attrs: noinline nounwind optnone uwtable
define linkonce_odr dso_local i64 @"??$_Get_size_of_n@$00@std@@YA_K_K@Z"(i64 %0) #2 comdat {
  %2 = alloca i64, align 8
  %3 = alloca i8, align 1
  store i64 %0, i64* %2, align 8
  store i8 0, i8* %3, align 1
  %4 = load i64, i64* %2, align 8
  %5 = mul i64 %4, 1
  ret i64 %5
}

; Function Attrs: noinline optnone uwtable
define linkonce_odr dso_local i8* @"??$_Allocate_manually_vector_aligned@U_Default_allocate_traits@std@@@std@@YAPEAX_K@Z"(i64 %0) #1 comdat {
  %2 = alloca i64, align 8
  %3 = alloca i64, align 8
  %4 = alloca i64, align 8
  %5 = alloca i8*, align 8
  store i64 %0, i64* %2, align 8
  %6 = load i64, i64* %2, align 8
  %7 = add i64 39, %6
  store i64 %7, i64* %3, align 8
  %8 = load i64, i64* %3, align 8
  %9 = load i64, i64* %2, align 8
  %10 = icmp ule i64 %8, %9
  br i1 %10, label %11, label %12

11:                                               ; preds = %1
  call void @"?_Throw_bad_array_new_length@std@@YAXXZ"() #14
  unreachable

12:                                               ; preds = %1
  %13 = load i64, i64* %3, align 8
  %14 = call i8* @"?_Allocate@_Default_allocate_traits@std@@SAPEAX_K@Z"(i64 %13)
  %15 = ptrtoint i8* %14 to i64
  store i64 %15, i64* %4, align 8
  br label %16

16:                                               ; preds = %12
  %17 = load i64, i64* %4, align 8
  %18 = icmp ne i64 %17, 0
  br i1 %18, label %19, label %20

19:                                               ; preds = %16
  br label %23

20:                                               ; preds = %16
  br label %21

21:                                               ; preds = %20
  call void @_invalid_parameter_noinfo_noreturn() #14
  unreachable

22:                                               ; No predecessors!
  br label %23

23:                                               ; preds = %22, %19
  br label %24

24:                                               ; preds = %23
  %25 = load i64, i64* %4, align 8
  %26 = add i64 %25, 39
  %27 = and i64 %26, -32
  %28 = inttoptr i64 %27 to i8*
  store i8* %28, i8** %5, align 8
  %29 = load i64, i64* %4, align 8
  %30 = load i8*, i8** %5, align 8
  %31 = bitcast i8* %30 to i64*
  %32 = getelementptr inbounds i64, i64* %31, i64 -1
  store i64 %29, i64* %32, align 8
  %33 = load i8*, i8** %5, align 8
  ret i8* %33
}

; Function Attrs: noinline optnone uwtable
define linkonce_odr dso_local i8* @"?_Allocate@_Default_allocate_traits@std@@SAPEAX_K@Z"(i64 %0) #1 comdat align 2 {
  %2 = alloca i64, align 8
  store i64 %0, i64* %2, align 8
  %3 = load i64, i64* %2, align 8
  %4 = call noalias nonnull i8* @"??2@YAPEAX_K@Z"(i64 %3) #16
  ret i8* %4
}

; Function Attrs: noinline noreturn optnone uwtable
define linkonce_odr dso_local void @"?_Throw_bad_array_new_length@std@@YAXXZ"() #10 comdat {
  %1 = alloca %"class.std::bad_array_new_length", align 8
  %2 = call %"class.std::bad_array_new_length"* @"??0bad_array_new_length@std@@QEAA@XZ"(%"class.std::bad_array_new_length"* %1) #3
  %3 = bitcast %"class.std::bad_array_new_length"* %1 to i8*
  call void @_CxxThrowException(i8* %3, %eh.ThrowInfo* @"_TI3?AVbad_array_new_length@std@@") #14
  unreachable
}

; Function Attrs: noinline nounwind optnone uwtable
define linkonce_odr dso_local %"class.std::bad_array_new_length"* @"??0bad_array_new_length@std@@QEAA@XZ"(%"class.std::bad_array_new_length"* returned %0) unnamed_addr #2 comdat align 2 {
  %2 = alloca %"class.std::bad_array_new_length"*, align 8
  store %"class.std::bad_array_new_length"* %0, %"class.std::bad_array_new_length"** %2, align 8
  %3 = load %"class.std::bad_array_new_length"*, %"class.std::bad_array_new_length"** %2, align 8
  %4 = bitcast %"class.std::bad_array_new_length"* %3 to %"class.std::bad_alloc"*
  %5 = call %"class.std::bad_alloc"* @"??0bad_alloc@std@@AEAA@QEBD@Z"(%"class.std::bad_alloc"* %4, i8* getelementptr inbounds ([21 x i8], [21 x i8]* @"??_C@_0BF@KINCDENJ@bad?5array?5new?5length?$AA@", i64 0, i64 0)) #3
  %6 = bitcast %"class.std::bad_array_new_length"* %3 to i32 (...)***
  store i32 (...)** bitcast (i8** @"??_7bad_array_new_length@std@@6B@" to i32 (...)**), i32 (...)*** %6, align 8
  ret %"class.std::bad_array_new_length"* %3
}

; Function Attrs: noinline nounwind optnone uwtable
define linkonce_odr dso_local %"class.std::bad_array_new_length"* @"??0bad_array_new_length@std@@QEAA@AEBV01@@Z"(%"class.std::bad_array_new_length"* returned %0, %"class.std::bad_array_new_length"* nonnull align 8 dereferenceable(24) %1) unnamed_addr #2 comdat align 2 {
  %3 = alloca %"class.std::bad_array_new_length"*, align 8
  %4 = alloca %"class.std::bad_array_new_length"*, align 8
  store %"class.std::bad_array_new_length"* %1, %"class.std::bad_array_new_length"** %3, align 8
  store %"class.std::bad_array_new_length"* %0, %"class.std::bad_array_new_length"** %4, align 8
  %5 = load %"class.std::bad_array_new_length"*, %"class.std::bad_array_new_length"** %4, align 8
  %6 = bitcast %"class.std::bad_array_new_length"* %5 to %"class.std::bad_alloc"*
  %7 = load %"class.std::bad_array_new_length"*, %"class.std::bad_array_new_length"** %3, align 8
  %8 = bitcast %"class.std::bad_array_new_length"* %7 to %"class.std::bad_alloc"*
  %9 = call %"class.std::bad_alloc"* @"??0bad_alloc@std@@QEAA@AEBV01@@Z"(%"class.std::bad_alloc"* %6, %"class.std::bad_alloc"* nonnull align 8 dereferenceable(24) %8) #3
  %10 = bitcast %"class.std::bad_array_new_length"* %5 to i32 (...)***
  store i32 (...)** bitcast (i8** @"??_7bad_array_new_length@std@@6B@" to i32 (...)**), i32 (...)*** %10, align 8
  ret %"class.std::bad_array_new_length"* %5
}

; Function Attrs: noinline nounwind optnone uwtable
define linkonce_odr dso_local %"class.std::bad_alloc"* @"??0bad_alloc@std@@QEAA@AEBV01@@Z"(%"class.std::bad_alloc"* returned %0, %"class.std::bad_alloc"* nonnull align 8 dereferenceable(24) %1) unnamed_addr #2 comdat align 2 {
  %3 = alloca %"class.std::bad_alloc"*, align 8
  %4 = alloca %"class.std::bad_alloc"*, align 8
  store %"class.std::bad_alloc"* %1, %"class.std::bad_alloc"** %3, align 8
  store %"class.std::bad_alloc"* %0, %"class.std::bad_alloc"** %4, align 8
  %5 = load %"class.std::bad_alloc"*, %"class.std::bad_alloc"** %4, align 8
  %6 = bitcast %"class.std::bad_alloc"* %5 to %"class.std::exception"*
  %7 = load %"class.std::bad_alloc"*, %"class.std::bad_alloc"** %3, align 8
  %8 = bitcast %"class.std::bad_alloc"* %7 to %"class.std::exception"*
  %9 = call %"class.std::exception"* @"??0exception@std@@QEAA@AEBV01@@Z"(%"class.std::exception"* %6, %"class.std::exception"* nonnull align 8 dereferenceable(24) %8) #3
  %10 = bitcast %"class.std::bad_alloc"* %5 to i32 (...)***
  store i32 (...)** bitcast (i8** @"??_7bad_alloc@std@@6B@" to i32 (...)**), i32 (...)*** %10, align 8
  ret %"class.std::bad_alloc"* %5
}

; Function Attrs: noinline nounwind optnone uwtable
define linkonce_odr dso_local %"class.std::exception"* @"??0exception@std@@QEAA@AEBV01@@Z"(%"class.std::exception"* returned %0, %"class.std::exception"* nonnull align 8 dereferenceable(24) %1) unnamed_addr #2 comdat align 2 personality i8* bitcast (i32 (...)* @__CxxFrameHandler3 to i8*) {
  %3 = alloca %"class.std::exception"*, align 8
  %4 = alloca %"class.std::exception"*, align 8
  store %"class.std::exception"* %1, %"class.std::exception"** %3, align 8
  store %"class.std::exception"* %0, %"class.std::exception"** %4, align 8
  %5 = load %"class.std::exception"*, %"class.std::exception"** %4, align 8
  %6 = bitcast %"class.std::exception"* %5 to i32 (...)***
  store i32 (...)** bitcast (i8** @"??_7exception@std@@6B@" to i32 (...)**), i32 (...)*** %6, align 8
  %7 = getelementptr inbounds %"class.std::exception", %"class.std::exception"* %5, i32 0, i32 1
  %8 = bitcast %struct.__std_exception_data* %7 to i8*
  call void @llvm.memset.p0i8.i64(i8* align 8 %8, i8 0, i64 16, i1 false)
  %9 = getelementptr inbounds %"class.std::exception", %"class.std::exception"* %5, i32 0, i32 1
  %10 = load %"class.std::exception"*, %"class.std::exception"** %3, align 8
  %11 = getelementptr inbounds %"class.std::exception", %"class.std::exception"* %10, i32 0, i32 1
  invoke void @__std_exception_copy(%struct.__std_exception_data* %11, %struct.__std_exception_data* %9)
          to label %12 unwind label %13

12:                                               ; preds = %2
  ret %"class.std::exception"* %5

13:                                               ; preds = %2
  %14 = cleanuppad within none []
  call void @__std_terminate() #15 [ "funclet"(token %14) ]
  unreachable
}

; Function Attrs: noinline nounwind optnone uwtable
define linkonce_odr dso_local void @"??1bad_array_new_length@std@@UEAA@XZ"(%"class.std::bad_array_new_length"* %0) unnamed_addr #2 comdat align 2 {
  %2 = alloca %"class.std::bad_array_new_length"*, align 8
  store %"class.std::bad_array_new_length"* %0, %"class.std::bad_array_new_length"** %2, align 8
  %3 = load %"class.std::bad_array_new_length"*, %"class.std::bad_array_new_length"** %2, align 8
  %4 = bitcast %"class.std::bad_array_new_length"* %3 to %"class.std::bad_alloc"*
  call void @"??1bad_alloc@std@@UEAA@XZ"(%"class.std::bad_alloc"* %4) #3
  ret void
}

declare dso_local void @_CxxThrowException(i8*, %eh.ThrowInfo*)

; Function Attrs: noinline nounwind optnone uwtable
define linkonce_odr dso_local %"class.std::bad_alloc"* @"??0bad_alloc@std@@AEAA@QEBD@Z"(%"class.std::bad_alloc"* returned %0, i8* %1) unnamed_addr #2 comdat align 2 {
  %3 = alloca i8*, align 8
  %4 = alloca %"class.std::bad_alloc"*, align 8
  store i8* %1, i8** %3, align 8
  store %"class.std::bad_alloc"* %0, %"class.std::bad_alloc"** %4, align 8
  %5 = load %"class.std::bad_alloc"*, %"class.std::bad_alloc"** %4, align 8
  %6 = bitcast %"class.std::bad_alloc"* %5 to %"class.std::exception"*
  %7 = load i8*, i8** %3, align 8
  %8 = call %"class.std::exception"* @"??0exception@std@@QEAA@QEBDH@Z"(%"class.std::exception"* %6, i8* %7, i32 1) #3
  %9 = bitcast %"class.std::bad_alloc"* %5 to i32 (...)***
  store i32 (...)** bitcast (i8** @"??_7bad_alloc@std@@6B@" to i32 (...)**), i32 (...)*** %9, align 8
  ret %"class.std::bad_alloc"* %5
}

; Function Attrs: noinline nounwind optnone uwtable
define linkonce_odr dso_local i8* @"??_Gbad_array_new_length@std@@UEAAPEAXI@Z"(%"class.std::bad_array_new_length"* %0, i32 %1) unnamed_addr #2 comdat align 2 {
  %3 = alloca i8*, align 8
  %4 = alloca i32, align 4
  %5 = alloca %"class.std::bad_array_new_length"*, align 8
  store i32 %1, i32* %4, align 4
  store %"class.std::bad_array_new_length"* %0, %"class.std::bad_array_new_length"** %5, align 8
  %6 = load %"class.std::bad_array_new_length"*, %"class.std::bad_array_new_length"** %5, align 8
  %7 = bitcast %"class.std::bad_array_new_length"* %6 to i8*
  store i8* %7, i8** %3, align 8
  %8 = load i32, i32* %4, align 4
  call void @"??1bad_array_new_length@std@@UEAA@XZ"(%"class.std::bad_array_new_length"* %6) #3
  %9 = icmp eq i32 %8, 0
  br i1 %9, label %12, label %10

10:                                               ; preds = %2
  %11 = bitcast %"class.std::bad_array_new_length"* %6 to i8*
  call void @"??3@YAXPEAX@Z"(i8* %11) #17
  br label %12

12:                                               ; preds = %10, %2
  %13 = load i8*, i8** %3, align 8
  ret i8* %13
}

; Function Attrs: noinline nounwind optnone uwtable
define linkonce_odr dso_local i8* @"?what@exception@std@@UEBAPEBDXZ"(%"class.std::exception"* %0) unnamed_addr #2 comdat align 2 {
  %2 = alloca %"class.std::exception"*, align 8
  store %"class.std::exception"* %0, %"class.std::exception"** %2, align 8
  %3 = load %"class.std::exception"*, %"class.std::exception"** %2, align 8
  %4 = getelementptr inbounds %"class.std::exception", %"class.std::exception"* %3, i32 0, i32 1
  %5 = getelementptr inbounds %struct.__std_exception_data, %struct.__std_exception_data* %4, i32 0, i32 0
  %6 = load i8*, i8** %5, align 8
  %7 = icmp ne i8* %6, null
  br i1 %7, label %8, label %12

8:                                                ; preds = %1
  %9 = getelementptr inbounds %"class.std::exception", %"class.std::exception"* %3, i32 0, i32 1
  %10 = getelementptr inbounds %struct.__std_exception_data, %struct.__std_exception_data* %9, i32 0, i32 0
  %11 = load i8*, i8** %10, align 8
  br label %13

12:                                               ; preds = %1
  br label %13

13:                                               ; preds = %12, %8
  %14 = phi i8* [ %11, %8 ], [ getelementptr inbounds ([18 x i8], [18 x i8]* @"??_C@_0BC@EOODALEL@Unknown?5exception?$AA@", i64 0, i64 0), %12 ]
  ret i8* %14
}

; Function Attrs: noinline nounwind optnone uwtable
define linkonce_odr dso_local %"class.std::exception"* @"??0exception@std@@QEAA@QEBDH@Z"(%"class.std::exception"* returned %0, i8* %1, i32 %2) unnamed_addr #2 comdat align 2 {
  %4 = alloca i32, align 4
  %5 = alloca i8*, align 8
  %6 = alloca %"class.std::exception"*, align 8
  store i32 %2, i32* %4, align 4
  store i8* %1, i8** %5, align 8
  store %"class.std::exception"* %0, %"class.std::exception"** %6, align 8
  %7 = load %"class.std::exception"*, %"class.std::exception"** %6, align 8
  %8 = bitcast %"class.std::exception"* %7 to i32 (...)***
  store i32 (...)** bitcast (i8** @"??_7exception@std@@6B@" to i32 (...)**), i32 (...)*** %8, align 8
  %9 = getelementptr inbounds %"class.std::exception", %"class.std::exception"* %7, i32 0, i32 1
  %10 = bitcast %struct.__std_exception_data* %9 to i8*
  call void @llvm.memset.p0i8.i64(i8* align 8 %10, i8 0, i64 16, i1 false)
  %11 = load i8*, i8** %5, align 8
  %12 = getelementptr inbounds %"class.std::exception", %"class.std::exception"* %7, i32 0, i32 1
  %13 = getelementptr inbounds %struct.__std_exception_data, %struct.__std_exception_data* %12, i32 0, i32 0
  store i8* %11, i8** %13, align 8
  ret %"class.std::exception"* %7
}

; Function Attrs: noinline nounwind optnone uwtable
define linkonce_odr dso_local i8* @"??_Gbad_alloc@std@@UEAAPEAXI@Z"(%"class.std::bad_alloc"* %0, i32 %1) unnamed_addr #2 comdat align 2 {
  %3 = alloca i8*, align 8
  %4 = alloca i32, align 4
  %5 = alloca %"class.std::bad_alloc"*, align 8
  store i32 %1, i32* %4, align 4
  store %"class.std::bad_alloc"* %0, %"class.std::bad_alloc"** %5, align 8
  %6 = load %"class.std::bad_alloc"*, %"class.std::bad_alloc"** %5, align 8
  %7 = bitcast %"class.std::bad_alloc"* %6 to i8*
  store i8* %7, i8** %3, align 8
  %8 = load i32, i32* %4, align 4
  call void @"??1bad_alloc@std@@UEAA@XZ"(%"class.std::bad_alloc"* %6) #3
  %9 = icmp eq i32 %8, 0
  br i1 %9, label %12, label %10

10:                                               ; preds = %2
  %11 = bitcast %"class.std::bad_alloc"* %6 to i8*
  call void @"??3@YAXPEAX@Z"(i8* %11) #17
  br label %12

12:                                               ; preds = %10, %2
  %13 = load i8*, i8** %3, align 8
  ret i8* %13
}

; Function Attrs: argmemonly nounwind willreturn
declare void @llvm.memset.p0i8.i64(i8* nocapture writeonly, i8, i64, i1 immarg) #7

; Function Attrs: noinline nounwind optnone uwtable
define linkonce_odr dso_local i8* @"??_Gexception@std@@UEAAPEAXI@Z"(%"class.std::exception"* %0, i32 %1) unnamed_addr #2 comdat align 2 {
  %3 = alloca i8*, align 8
  %4 = alloca i32, align 4
  %5 = alloca %"class.std::exception"*, align 8
  store i32 %1, i32* %4, align 4
  store %"class.std::exception"* %0, %"class.std::exception"** %5, align 8
  %6 = load %"class.std::exception"*, %"class.std::exception"** %5, align 8
  %7 = bitcast %"class.std::exception"* %6 to i8*
  store i8* %7, i8** %3, align 8
  %8 = load i32, i32* %4, align 4
  call void @"??1exception@std@@UEAA@XZ"(%"class.std::exception"* %6) #3
  %9 = icmp eq i32 %8, 0
  br i1 %9, label %12, label %10

10:                                               ; preds = %2
  %11 = bitcast %"class.std::exception"* %6 to i8*
  call void @"??3@YAXPEAX@Z"(i8* %11) #17
  br label %12

12:                                               ; preds = %10, %2
  %13 = load i8*, i8** %3, align 8
  ret i8* %13
}

; Function Attrs: noinline nounwind optnone uwtable
define linkonce_odr dso_local void @"??1exception@std@@UEAA@XZ"(%"class.std::exception"* %0) unnamed_addr #2 comdat align 2 personality i8* bitcast (i32 (...)* @__CxxFrameHandler3 to i8*) {
  %2 = alloca %"class.std::exception"*, align 8
  store %"class.std::exception"* %0, %"class.std::exception"** %2, align 8
  %3 = load %"class.std::exception"*, %"class.std::exception"** %2, align 8
  %4 = bitcast %"class.std::exception"* %3 to i32 (...)***
  store i32 (...)** bitcast (i8** @"??_7exception@std@@6B@" to i32 (...)**), i32 (...)*** %4, align 8
  %5 = getelementptr inbounds %"class.std::exception", %"class.std::exception"* %3, i32 0, i32 1
  invoke void @__std_exception_destroy(%struct.__std_exception_data* %5)
          to label %6 unwind label %7

6:                                                ; preds = %1
  ret void

7:                                                ; preds = %1
  %8 = cleanuppad within none []
  call void @__std_terminate() #15 [ "funclet"(token %8) ]
  unreachable
}

; Function Attrs: nobuiltin nounwind
declare dso_local void @"??3@YAXPEAX@Z"(i8*) #11

declare dso_local void @__std_exception_destroy(%struct.__std_exception_data*) #4

; Function Attrs: noinline nounwind optnone uwtable
define linkonce_odr dso_local void @"??1bad_alloc@std@@UEAA@XZ"(%"class.std::bad_alloc"* %0) unnamed_addr #2 comdat align 2 {
  %2 = alloca %"class.std::bad_alloc"*, align 8
  store %"class.std::bad_alloc"* %0, %"class.std::bad_alloc"** %2, align 8
  %3 = load %"class.std::bad_alloc"*, %"class.std::bad_alloc"** %2, align 8
  %4 = bitcast %"class.std::bad_alloc"* %3 to %"class.std::exception"*
  call void @"??1exception@std@@UEAA@XZ"(%"class.std::exception"* %4) #3
  ret void
}

declare dso_local void @__std_exception_copy(%struct.__std_exception_data*, %struct.__std_exception_data*) #4

; Function Attrs: nobuiltin allocsize(0)
declare dso_local nonnull i8* @"??2@YAPEAX_K@Z"(i64) #12

; Function Attrs: noinline nounwind optnone uwtable
define linkonce_odr dso_local i8* @"?copy@?$_Char_traits@DH@std@@SAPEADQEADQEBD_K@Z"(i8* %0, i8* %1, i64 %2) #2 comdat align 2 {
  %4 = alloca i64, align 8
  %5 = alloca i8*, align 8
  %6 = alloca i8*, align 8
  store i64 %2, i64* %4, align 8
  store i8* %1, i8** %5, align 8
  store i8* %0, i8** %6, align 8
  %7 = load i8*, i8** %6, align 8
  %8 = load i8*, i8** %5, align 8
  %9 = load i64, i64* %4, align 8
  %10 = mul i64 %9, 1
  call void @llvm.memcpy.p0i8.p0i8.i64(i8* align 1 %7, i8* align 1 %8, i64 %10, i1 false)
  %11 = load i8*, i8** %6, align 8
  ret i8* %11
}

; Function Attrs: noinline nounwind optnone uwtable
define linkonce_odr dso_local i8** @"??$addressof@PEAD@std@@YAPEAPEADAEAPEAD@Z"(i8** nonnull align 8 dereferenceable(8) %0) #2 comdat {
  %2 = alloca i8**, align 8
  store i8** %0, i8*** %2, align 8
  %3 = load i8**, i8*** %2, align 8
  ret i8** %3
}

; Function Attrs: noinline nounwind optnone uwtable
define linkonce_odr dso_local nonnull align 8 dereferenceable(8) i8** @"??$forward@AEBQEAD@std@@YAAEBQEADAEBQEAD@Z"(i8** nonnull align 8 dereferenceable(8) %0) #2 comdat {
  %2 = alloca i8**, align 8
  store i8** %0, i8*** %2, align 8
  %3 = load i8**, i8*** %2, align 8
  ret i8** %3
}

declare dso_local i64 @strlen(i8*) #4

; Function Attrs: noinline nounwind optnone uwtable
define linkonce_odr dso_local i64 @"?width@ios_base@std@@QEBA_JXZ"(%"class.std::ios_base"* %0) #2 comdat align 2 {
  %2 = alloca %"class.std::ios_base"*, align 8
  store %"class.std::ios_base"* %0, %"class.std::ios_base"** %2, align 8
  %3 = load %"class.std::ios_base"*, %"class.std::ios_base"** %2, align 8
  %4 = getelementptr inbounds %"class.std::ios_base", %"class.std::ios_base"* %3, i32 0, i32 6
  %5 = load i64, i64* %4, align 8
  ret i64 %5
}

; Function Attrs: noinline optnone uwtable
define linkonce_odr dso_local %"class.std::basic_ostream<char, std::char_traits<char>>::sentry"* @"??0sentry@?$basic_ostream@DU?$char_traits@D@std@@@std@@QEAA@AEAV12@@Z"(%"class.std::basic_ostream<char, std::char_traits<char>>::sentry"* returned %0, %"class.std::basic_ostream"* nonnull align 8 dereferenceable(8) %1) unnamed_addr #1 comdat align 2 personality i8* bitcast (i32 (...)* @__CxxFrameHandler3 to i8*) {
  %3 = alloca %"class.std::basic_ostream<char, std::char_traits<char>>::sentry"*, align 8
  %4 = alloca %"class.std::basic_ostream"*, align 8
  %5 = alloca %"class.std::basic_ostream<char, std::char_traits<char>>::sentry"*, align 8
  %6 = alloca %"class.std::basic_ostream"*, align 8
  store %"class.std::basic_ostream"* %1, %"class.std::basic_ostream"** %4, align 8
  store %"class.std::basic_ostream<char, std::char_traits<char>>::sentry"* %0, %"class.std::basic_ostream<char, std::char_traits<char>>::sentry"** %5, align 8
  %7 = load %"class.std::basic_ostream<char, std::char_traits<char>>::sentry"*, %"class.std::basic_ostream<char, std::char_traits<char>>::sentry"** %5, align 8
  store %"class.std::basic_ostream<char, std::char_traits<char>>::sentry"* %7, %"class.std::basic_ostream<char, std::char_traits<char>>::sentry"** %3, align 8
  %8 = bitcast %"class.std::basic_ostream<char, std::char_traits<char>>::sentry"* %7 to %"class.std::basic_ostream<char, std::char_traits<char>>::_Sentry_base"*
  %9 = load %"class.std::basic_ostream"*, %"class.std::basic_ostream"** %4, align 8
  %10 = call %"class.std::basic_ostream<char, std::char_traits<char>>::_Sentry_base"* @"??0_Sentry_base@?$basic_ostream@DU?$char_traits@D@std@@@std@@QEAA@AEAV12@@Z"(%"class.std::basic_ostream<char, std::char_traits<char>>::_Sentry_base"* %8, %"class.std::basic_ostream"* nonnull align 8 dereferenceable(8) %9)
  %11 = load %"class.std::basic_ostream"*, %"class.std::basic_ostream"** %4, align 8
  %12 = bitcast %"class.std::basic_ostream"* %11 to i8*
  %13 = getelementptr inbounds i8, i8* %12, i64 0
  %14 = bitcast i8* %13 to i32**
  %15 = load i32*, i32** %14, align 8
  %16 = getelementptr inbounds i32, i32* %15, i32 1
  %17 = load i32, i32* %16, align 4
  %18 = sext i32 %17 to i64
  %19 = add nsw i64 0, %18
  %20 = bitcast %"class.std::basic_ostream"* %11 to i8*
  %21 = getelementptr inbounds i8, i8* %20, i64 %19
  %22 = bitcast i8* %21 to %"class.std::ios_base"*
  %23 = invoke zeroext i1 @"?good@ios_base@std@@QEBA_NXZ"(%"class.std::ios_base"* %22)
          to label %24 unwind label %72

24:                                               ; preds = %2
  br i1 %23, label %27, label %25

25:                                               ; preds = %24
  %26 = getelementptr inbounds %"class.std::basic_ostream<char, std::char_traits<char>>::sentry", %"class.std::basic_ostream<char, std::char_traits<char>>::sentry"* %7, i32 0, i32 1
  store i8 0, i8* %26, align 8
  br label %70

27:                                               ; preds = %24
  %28 = load %"class.std::basic_ostream"*, %"class.std::basic_ostream"** %4, align 8
  %29 = bitcast %"class.std::basic_ostream"* %28 to i8*
  %30 = getelementptr inbounds i8, i8* %29, i64 0
  %31 = bitcast i8* %30 to i32**
  %32 = load i32*, i32** %31, align 8
  %33 = getelementptr inbounds i32, i32* %32, i32 1
  %34 = load i32, i32* %33, align 4
  %35 = sext i32 %34 to i64
  %36 = add nsw i64 0, %35
  %37 = bitcast %"class.std::basic_ostream"* %28 to i8*
  %38 = getelementptr inbounds i8, i8* %37, i64 %36
  %39 = bitcast i8* %38 to %"class.std::basic_ios"*
  %40 = invoke %"class.std::basic_ostream"* @"?tie@?$basic_ios@DU?$char_traits@D@std@@@std@@QEBAPEAV?$basic_ostream@DU?$char_traits@D@std@@@2@XZ"(%"class.std::basic_ios"* %39)
          to label %41 unwind label %72

41:                                               ; preds = %27
  store %"class.std::basic_ostream"* %40, %"class.std::basic_ostream"** %6, align 8
  %42 = load %"class.std::basic_ostream"*, %"class.std::basic_ostream"** %6, align 8
  %43 = icmp ne %"class.std::basic_ostream"* %42, null
  br i1 %43, label %44, label %48

44:                                               ; preds = %41
  %45 = load %"class.std::basic_ostream"*, %"class.std::basic_ostream"** %6, align 8
  %46 = load %"class.std::basic_ostream"*, %"class.std::basic_ostream"** %4, align 8
  %47 = icmp eq %"class.std::basic_ostream"* %45, %46
  br i1 %47, label %48, label %50

48:                                               ; preds = %44, %41
  %49 = getelementptr inbounds %"class.std::basic_ostream<char, std::char_traits<char>>::sentry", %"class.std::basic_ostream<char, std::char_traits<char>>::sentry"* %7, i32 0, i32 1
  store i8 1, i8* %49, align 8
  br label %70

50:                                               ; preds = %44
  %51 = load %"class.std::basic_ostream"*, %"class.std::basic_ostream"** %6, align 8
  %52 = invoke nonnull align 8 dereferenceable(8) %"class.std::basic_ostream"* @"?flush@?$basic_ostream@DU?$char_traits@D@std@@@std@@QEAAAEAV12@XZ"(%"class.std::basic_ostream"* %51)
          to label %53 unwind label %72

53:                                               ; preds = %50
  %54 = load %"class.std::basic_ostream"*, %"class.std::basic_ostream"** %4, align 8
  %55 = bitcast %"class.std::basic_ostream"* %54 to i8*
  %56 = getelementptr inbounds i8, i8* %55, i64 0
  %57 = bitcast i8* %56 to i32**
  %58 = load i32*, i32** %57, align 8
  %59 = getelementptr inbounds i32, i32* %58, i32 1
  %60 = load i32, i32* %59, align 4
  %61 = sext i32 %60 to i64
  %62 = add nsw i64 0, %61
  %63 = bitcast %"class.std::basic_ostream"* %54 to i8*
  %64 = getelementptr inbounds i8, i8* %63, i64 %62
  %65 = bitcast i8* %64 to %"class.std::ios_base"*
  %66 = invoke zeroext i1 @"?good@ios_base@std@@QEBA_NXZ"(%"class.std::ios_base"* %65)
          to label %67 unwind label %72

67:                                               ; preds = %53
  %68 = getelementptr inbounds %"class.std::basic_ostream<char, std::char_traits<char>>::sentry", %"class.std::basic_ostream<char, std::char_traits<char>>::sentry"* %7, i32 0, i32 1
  %69 = zext i1 %66 to i8
  store i8 %69, i8* %68, align 8
  br label %70

70:                                               ; preds = %67, %48, %25
  %71 = load %"class.std::basic_ostream<char, std::char_traits<char>>::sentry"*, %"class.std::basic_ostream<char, std::char_traits<char>>::sentry"** %3, align 8
  ret %"class.std::basic_ostream<char, std::char_traits<char>>::sentry"* %71

72:                                               ; preds = %53, %50, %27, %2
  %73 = cleanuppad within none []
  %74 = bitcast %"class.std::basic_ostream<char, std::char_traits<char>>::sentry"* %7 to %"class.std::basic_ostream<char, std::char_traits<char>>::_Sentry_base"*
  call void @"??1_Sentry_base@?$basic_ostream@DU?$char_traits@D@std@@@std@@QEAA@XZ"(%"class.std::basic_ostream<char, std::char_traits<char>>::_Sentry_base"* %74) #3 [ "funclet"(token %73) ]
  cleanupret from %73 unwind to caller
}

; Function Attrs: noinline nounwind optnone uwtable
define linkonce_odr dso_local zeroext i1 @"??Bsentry@?$basic_ostream@DU?$char_traits@D@std@@@std@@QEBA_NXZ"(%"class.std::basic_ostream<char, std::char_traits<char>>::sentry"* %0) #2 comdat align 2 {
  %2 = alloca %"class.std::basic_ostream<char, std::char_traits<char>>::sentry"*, align 8
  store %"class.std::basic_ostream<char, std::char_traits<char>>::sentry"* %0, %"class.std::basic_ostream<char, std::char_traits<char>>::sentry"** %2, align 8
  %3 = load %"class.std::basic_ostream<char, std::char_traits<char>>::sentry"*, %"class.std::basic_ostream<char, std::char_traits<char>>::sentry"** %2, align 8
  %4 = getelementptr inbounds %"class.std::basic_ostream<char, std::char_traits<char>>::sentry", %"class.std::basic_ostream<char, std::char_traits<char>>::sentry"* %3, i32 0, i32 1
  %5 = load i8, i8* %4, align 8
  %6 = trunc i8 %5 to i1
  ret i1 %6
}

; Function Attrs: noinline nounwind optnone uwtable
define linkonce_odr dso_local i32 @"?flags@ios_base@std@@QEBAHXZ"(%"class.std::ios_base"* %0) #2 comdat align 2 {
  %2 = alloca %"class.std::ios_base"*, align 8
  store %"class.std::ios_base"* %0, %"class.std::ios_base"** %2, align 8
  %3 = load %"class.std::ios_base"*, %"class.std::ios_base"** %2, align 8
  %4 = getelementptr inbounds %"class.std::ios_base", %"class.std::ios_base"* %3, i32 0, i32 4
  %5 = load i32, i32* %4, align 8
  ret i32 %5
}

; Function Attrs: noinline nounwind optnone uwtable
define linkonce_odr dso_local zeroext i1 @"?eq_int_type@?$_Narrow_char_traits@DH@std@@SA_NAEBH0@Z"(i32* nonnull align 4 dereferenceable(4) %0, i32* nonnull align 4 dereferenceable(4) %1) #2 comdat align 2 {
  %3 = alloca i32*, align 8
  %4 = alloca i32*, align 8
  store i32* %1, i32** %3, align 8
  store i32* %0, i32** %4, align 8
  %5 = load i32*, i32** %4, align 8
  %6 = load i32, i32* %5, align 4
  %7 = load i32*, i32** %3, align 8
  %8 = load i32, i32* %7, align 4
  %9 = icmp eq i32 %6, %8
  ret i1 %9
}

; Function Attrs: noinline nounwind optnone uwtable
define linkonce_odr dso_local %"class.std::basic_streambuf"* @"?rdbuf@?$basic_ios@DU?$char_traits@D@std@@@std@@QEBAPEAV?$basic_streambuf@DU?$char_traits@D@std@@@2@XZ"(%"class.std::basic_ios"* %0) #2 comdat align 2 {
  %2 = alloca %"class.std::basic_ios"*, align 8
  store %"class.std::basic_ios"* %0, %"class.std::basic_ios"** %2, align 8
  %3 = load %"class.std::basic_ios"*, %"class.std::basic_ios"** %2, align 8
  %4 = getelementptr inbounds %"class.std::basic_ios", %"class.std::basic_ios"* %3, i32 0, i32 1
  %5 = load %"class.std::basic_streambuf"*, %"class.std::basic_streambuf"** %4, align 8
  ret %"class.std::basic_streambuf"* %5
}

; Function Attrs: noinline optnone uwtable
define linkonce_odr dso_local i32 @"?sputc@?$basic_streambuf@DU?$char_traits@D@std@@@std@@QEAAHD@Z"(%"class.std::basic_streambuf"* %0, i8 %1) #1 comdat align 2 {
  %3 = alloca i8, align 1
  %4 = alloca %"class.std::basic_streambuf"*, align 8
  store i8 %1, i8* %3, align 1
  store %"class.std::basic_streambuf"* %0, %"class.std::basic_streambuf"** %4, align 8
  %5 = load %"class.std::basic_streambuf"*, %"class.std::basic_streambuf"** %4, align 8
  %6 = call i64 @"?_Pnavail@?$basic_streambuf@DU?$char_traits@D@std@@@std@@IEBA_JXZ"(%"class.std::basic_streambuf"* %5)
  %7 = icmp slt i64 0, %6
  br i1 %7, label %8, label %12

8:                                                ; preds = %2
  %9 = load i8, i8* %3, align 1
  %10 = call i8* @"?_Pninc@?$basic_streambuf@DU?$char_traits@D@std@@@std@@IEAAPEADXZ"(%"class.std::basic_streambuf"* %5)
  store i8 %9, i8* %10, align 1
  %11 = call i32 @"?to_int_type@?$_Narrow_char_traits@DH@std@@SAHAEBD@Z"(i8* nonnull align 1 dereferenceable(1) %10) #3
  br label %19

12:                                               ; preds = %2
  %13 = call i32 @"?to_int_type@?$_Narrow_char_traits@DH@std@@SAHAEBD@Z"(i8* nonnull align 1 dereferenceable(1) %3) #3
  %14 = bitcast %"class.std::basic_streambuf"* %5 to i32 (%"class.std::basic_streambuf"*, i32)***
  %15 = load i32 (%"class.std::basic_streambuf"*, i32)**, i32 (%"class.std::basic_streambuf"*, i32)*** %14, align 8
  %16 = getelementptr inbounds i32 (%"class.std::basic_streambuf"*, i32)*, i32 (%"class.std::basic_streambuf"*, i32)** %15, i64 3
  %17 = load i32 (%"class.std::basic_streambuf"*, i32)*, i32 (%"class.std::basic_streambuf"*, i32)** %16, align 8
  %18 = call i32 %17(%"class.std::basic_streambuf"* %5, i32 %13)
  br label %19

19:                                               ; preds = %12, %8
  %20 = phi i32 [ %11, %8 ], [ %18, %12 ]
  ret i32 %20
}

; Function Attrs: noinline nounwind optnone uwtable
define linkonce_odr dso_local i8 @"?fill@?$basic_ios@DU?$char_traits@D@std@@@std@@QEBADXZ"(%"class.std::basic_ios"* %0) #2 comdat align 2 {
  %2 = alloca %"class.std::basic_ios"*, align 8
  store %"class.std::basic_ios"* %0, %"class.std::basic_ios"** %2, align 8
  %3 = load %"class.std::basic_ios"*, %"class.std::basic_ios"** %2, align 8
  %4 = getelementptr inbounds %"class.std::basic_ios", %"class.std::basic_ios"* %3, i32 0, i32 3
  %5 = load i8, i8* %4, align 8
  ret i8 %5
}

; Function Attrs: noinline nounwind optnone uwtable
define linkonce_odr dso_local i32 @"?eof@?$_Narrow_char_traits@DH@std@@SAHXZ"() #2 comdat align 2 {
  ret i32 -1
}

; Function Attrs: noinline optnone uwtable
define linkonce_odr dso_local i64 @"?sputn@?$basic_streambuf@DU?$char_traits@D@std@@@std@@QEAA_JPEBD_J@Z"(%"class.std::basic_streambuf"* %0, i8* %1, i64 %2) #1 comdat align 2 {
  %4 = alloca i64, align 8
  %5 = alloca i8*, align 8
  %6 = alloca %"class.std::basic_streambuf"*, align 8
  store i64 %2, i64* %4, align 8
  store i8* %1, i8** %5, align 8
  store %"class.std::basic_streambuf"* %0, %"class.std::basic_streambuf"** %6, align 8
  %7 = load %"class.std::basic_streambuf"*, %"class.std::basic_streambuf"** %6, align 8
  %8 = load i64, i64* %4, align 8
  %9 = load i8*, i8** %5, align 8
  %10 = bitcast %"class.std::basic_streambuf"* %7 to i64 (%"class.std::basic_streambuf"*, i8*, i64)***
  %11 = load i64 (%"class.std::basic_streambuf"*, i8*, i64)**, i64 (%"class.std::basic_streambuf"*, i8*, i64)*** %10, align 8
  %12 = getelementptr inbounds i64 (%"class.std::basic_streambuf"*, i8*, i64)*, i64 (%"class.std::basic_streambuf"*, i8*, i64)** %11, i64 9
  %13 = load i64 (%"class.std::basic_streambuf"*, i8*, i64)*, i64 (%"class.std::basic_streambuf"*, i8*, i64)** %12, align 8
  %14 = call i64 %13(%"class.std::basic_streambuf"* %7, i8* %9, i64 %8)
  ret i64 %14
}

; Function Attrs: noinline nounwind optnone uwtable
define linkonce_odr dso_local i64 @"?width@ios_base@std@@QEAA_J_J@Z"(%"class.std::ios_base"* %0, i64 %1) #2 comdat align 2 {
  %3 = alloca i64, align 8
  %4 = alloca %"class.std::ios_base"*, align 8
  %5 = alloca i64, align 8
  store i64 %1, i64* %3, align 8
  store %"class.std::ios_base"* %0, %"class.std::ios_base"** %4, align 8
  %6 = load %"class.std::ios_base"*, %"class.std::ios_base"** %4, align 8
  %7 = getelementptr inbounds %"class.std::ios_base", %"class.std::ios_base"* %6, i32 0, i32 6
  %8 = load i64, i64* %7, align 8
  store i64 %8, i64* %5, align 8
  %9 = load i64, i64* %3, align 8
  %10 = getelementptr inbounds %"class.std::ios_base", %"class.std::ios_base"* %6, i32 0, i32 6
  store i64 %9, i64* %10, align 8
  %11 = load i64, i64* %5, align 8
  ret i64 %11
}

; Function Attrs: noinline optnone uwtable
define linkonce_odr dso_local void @"?setstate@?$basic_ios@DU?$char_traits@D@std@@@std@@QEAAXH_N@Z"(%"class.std::basic_ios"* %0, i32 %1, i1 zeroext %2) #1 comdat align 2 {
  %4 = alloca i8, align 1
  %5 = alloca i32, align 4
  %6 = alloca %"class.std::basic_ios"*, align 8
  %7 = zext i1 %2 to i8
  store i8 %7, i8* %4, align 1
  store i32 %1, i32* %5, align 4
  store %"class.std::basic_ios"* %0, %"class.std::basic_ios"** %6, align 8
  %8 = load %"class.std::basic_ios"*, %"class.std::basic_ios"** %6, align 8
  %9 = load i8, i8* %4, align 1
  %10 = trunc i8 %9 to i1
  %11 = bitcast %"class.std::basic_ios"* %8 to %"class.std::ios_base"*
  %12 = call i32 @"?rdstate@ios_base@std@@QEBAHXZ"(%"class.std::ios_base"* %11)
  %13 = load i32, i32* %5, align 4
  %14 = or i32 %12, %13
  call void @"?clear@?$basic_ios@DU?$char_traits@D@std@@@std@@QEAAXH_N@Z"(%"class.std::basic_ios"* %8, i32 %14, i1 zeroext %10)
  ret void
}

; Function Attrs: noinline nounwind optnone uwtable
define linkonce_odr dso_local void @"??1sentry@?$basic_ostream@DU?$char_traits@D@std@@@std@@QEAA@XZ"(%"class.std::basic_ostream<char, std::char_traits<char>>::sentry"* %0) unnamed_addr #2 comdat align 2 personality i8* bitcast (i32 (...)* @__CxxFrameHandler3 to i8*) {
  %2 = alloca %"class.std::basic_ostream<char, std::char_traits<char>>::sentry"*, align 8
  %3 = alloca i8, align 1
  store %"class.std::basic_ostream<char, std::char_traits<char>>::sentry"* %0, %"class.std::basic_ostream<char, std::char_traits<char>>::sentry"** %2, align 8
  %4 = load %"class.std::basic_ostream<char, std::char_traits<char>>::sentry"*, %"class.std::basic_ostream<char, std::char_traits<char>>::sentry"** %2, align 8
  %5 = call zeroext i1 @"?uncaught_exception@std@@YA_NXZ"() #3
  %6 = xor i1 %5, true
  %7 = zext i1 %6 to i8
  store i8 %7, i8* %3, align 1
  %8 = load i8, i8* %3, align 1
  %9 = trunc i8 %8 to i1
  br i1 %9, label %10, label %15

10:                                               ; preds = %1
  %11 = bitcast %"class.std::basic_ostream<char, std::char_traits<char>>::sentry"* %4 to %"class.std::basic_ostream<char, std::char_traits<char>>::_Sentry_base"*
  %12 = getelementptr inbounds %"class.std::basic_ostream<char, std::char_traits<char>>::_Sentry_base", %"class.std::basic_ostream<char, std::char_traits<char>>::_Sentry_base"* %11, i32 0, i32 0
  %13 = load %"class.std::basic_ostream"*, %"class.std::basic_ostream"** %12, align 8
  invoke void @"?_Osfx@?$basic_ostream@DU?$char_traits@D@std@@@std@@QEAAXXZ"(%"class.std::basic_ostream"* %13)
          to label %14 unwind label %17

14:                                               ; preds = %10
  br label %15

15:                                               ; preds = %14, %1
  %16 = bitcast %"class.std::basic_ostream<char, std::char_traits<char>>::sentry"* %4 to %"class.std::basic_ostream<char, std::char_traits<char>>::_Sentry_base"*
  call void @"??1_Sentry_base@?$basic_ostream@DU?$char_traits@D@std@@@std@@QEAA@XZ"(%"class.std::basic_ostream<char, std::char_traits<char>>::_Sentry_base"* %16) #3
  ret void

17:                                               ; preds = %10
  %18 = cleanuppad within none []
  %19 = bitcast %"class.std::basic_ostream<char, std::char_traits<char>>::sentry"* %4 to %"class.std::basic_ostream<char, std::char_traits<char>>::_Sentry_base"*
  call void @"??1_Sentry_base@?$basic_ostream@DU?$char_traits@D@std@@@std@@QEAA@XZ"(%"class.std::basic_ostream<char, std::char_traits<char>>::_Sentry_base"* %19) #3 [ "funclet"(token %18) ]
  cleanupret from %18 unwind label %20

20:                                               ; preds = %17
  %21 = cleanuppad within none []
  call void @__std_terminate() #15 [ "funclet"(token %21) ]
  unreachable
}

; Function Attrs: noinline optnone uwtable
define linkonce_odr dso_local %"class.std::basic_ostream<char, std::char_traits<char>>::_Sentry_base"* @"??0_Sentry_base@?$basic_ostream@DU?$char_traits@D@std@@@std@@QEAA@AEAV12@@Z"(%"class.std::basic_ostream<char, std::char_traits<char>>::_Sentry_base"* returned %0, %"class.std::basic_ostream"* nonnull align 8 dereferenceable(8) %1) unnamed_addr #1 comdat align 2 {
  %3 = alloca %"class.std::basic_ostream<char, std::char_traits<char>>::_Sentry_base"*, align 8
  %4 = alloca %"class.std::basic_ostream"*, align 8
  %5 = alloca %"class.std::basic_ostream<char, std::char_traits<char>>::_Sentry_base"*, align 8
  %6 = alloca %"class.std::basic_streambuf"*, align 8
  store %"class.std::basic_ostream"* %1, %"class.std::basic_ostream"** %4, align 8
  store %"class.std::basic_ostream<char, std::char_traits<char>>::_Sentry_base"* %0, %"class.std::basic_ostream<char, std::char_traits<char>>::_Sentry_base"** %5, align 8
  %7 = load %"class.std::basic_ostream<char, std::char_traits<char>>::_Sentry_base"*, %"class.std::basic_ostream<char, std::char_traits<char>>::_Sentry_base"** %5, align 8
  store %"class.std::basic_ostream<char, std::char_traits<char>>::_Sentry_base"* %7, %"class.std::basic_ostream<char, std::char_traits<char>>::_Sentry_base"** %3, align 8
  %8 = getelementptr inbounds %"class.std::basic_ostream<char, std::char_traits<char>>::_Sentry_base", %"class.std::basic_ostream<char, std::char_traits<char>>::_Sentry_base"* %7, i32 0, i32 0
  %9 = load %"class.std::basic_ostream"*, %"class.std::basic_ostream"** %4, align 8
  store %"class.std::basic_ostream"* %9, %"class.std::basic_ostream"** %8, align 8
  %10 = getelementptr inbounds %"class.std::basic_ostream<char, std::char_traits<char>>::_Sentry_base", %"class.std::basic_ostream<char, std::char_traits<char>>::_Sentry_base"* %7, i32 0, i32 0
  %11 = load %"class.std::basic_ostream"*, %"class.std::basic_ostream"** %10, align 8
  %12 = bitcast %"class.std::basic_ostream"* %11 to i8*
  %13 = getelementptr inbounds i8, i8* %12, i64 0
  %14 = bitcast i8* %13 to i32**
  %15 = load i32*, i32** %14, align 8
  %16 = getelementptr inbounds i32, i32* %15, i32 1
  %17 = load i32, i32* %16, align 4
  %18 = sext i32 %17 to i64
  %19 = add nsw i64 0, %18
  %20 = bitcast %"class.std::basic_ostream"* %11 to i8*
  %21 = getelementptr inbounds i8, i8* %20, i64 %19
  %22 = bitcast i8* %21 to %"class.std::basic_ios"*
  %23 = call %"class.std::basic_streambuf"* @"?rdbuf@?$basic_ios@DU?$char_traits@D@std@@@std@@QEBAPEAV?$basic_streambuf@DU?$char_traits@D@std@@@2@XZ"(%"class.std::basic_ios"* %22)
  store %"class.std::basic_streambuf"* %23, %"class.std::basic_streambuf"** %6, align 8
  %24 = load %"class.std::basic_streambuf"*, %"class.std::basic_streambuf"** %6, align 8
  %25 = icmp ne %"class.std::basic_streambuf"* %24, null
  br i1 %25, label %26, label %32

26:                                               ; preds = %2
  %27 = load %"class.std::basic_streambuf"*, %"class.std::basic_streambuf"** %6, align 8
  %28 = bitcast %"class.std::basic_streambuf"* %27 to void (%"class.std::basic_streambuf"*)***
  %29 = load void (%"class.std::basic_streambuf"*)**, void (%"class.std::basic_streambuf"*)*** %28, align 8
  %30 = getelementptr inbounds void (%"class.std::basic_streambuf"*)*, void (%"class.std::basic_streambuf"*)** %29, i64 1
  %31 = load void (%"class.std::basic_streambuf"*)*, void (%"class.std::basic_streambuf"*)** %30, align 8
  call void %31(%"class.std::basic_streambuf"* %27)
  br label %32

32:                                               ; preds = %26, %2
  %33 = load %"class.std::basic_ostream<char, std::char_traits<char>>::_Sentry_base"*, %"class.std::basic_ostream<char, std::char_traits<char>>::_Sentry_base"** %3, align 8
  ret %"class.std::basic_ostream<char, std::char_traits<char>>::_Sentry_base"* %33
}

; Function Attrs: noinline optnone uwtable
define linkonce_odr dso_local zeroext i1 @"?good@ios_base@std@@QEBA_NXZ"(%"class.std::ios_base"* %0) #1 comdat align 2 {
  %2 = alloca %"class.std::ios_base"*, align 8
  store %"class.std::ios_base"* %0, %"class.std::ios_base"** %2, align 8
  %3 = load %"class.std::ios_base"*, %"class.std::ios_base"** %2, align 8
  %4 = call i32 @"?rdstate@ios_base@std@@QEBAHXZ"(%"class.std::ios_base"* %3)
  %5 = icmp eq i32 %4, 0
  ret i1 %5
}

; Function Attrs: noinline nounwind optnone uwtable
define linkonce_odr dso_local %"class.std::basic_ostream"* @"?tie@?$basic_ios@DU?$char_traits@D@std@@@std@@QEBAPEAV?$basic_ostream@DU?$char_traits@D@std@@@2@XZ"(%"class.std::basic_ios"* %0) #2 comdat align 2 {
  %2 = alloca %"class.std::basic_ios"*, align 8
  store %"class.std::basic_ios"* %0, %"class.std::basic_ios"** %2, align 8
  %3 = load %"class.std::basic_ios"*, %"class.std::basic_ios"** %2, align 8
  %4 = getelementptr inbounds %"class.std::basic_ios", %"class.std::basic_ios"* %3, i32 0, i32 2
  %5 = load %"class.std::basic_ostream"*, %"class.std::basic_ostream"** %4, align 8
  ret %"class.std::basic_ostream"* %5
}

; Function Attrs: noinline optnone uwtable
define linkonce_odr dso_local nonnull align 8 dereferenceable(8) %"class.std::basic_ostream"* @"?flush@?$basic_ostream@DU?$char_traits@D@std@@@std@@QEAAAEAV12@XZ"(%"class.std::basic_ostream"* %0) #1 comdat align 2 personality i8* bitcast (i32 (...)* @__CxxFrameHandler3 to i8*) {
  %2 = alloca %"class.std::basic_ostream"*, align 8
  %3 = alloca %"class.std::basic_streambuf"*, align 8
  %4 = alloca %"class.std::basic_ostream<char, std::char_traits<char>>::sentry", align 8
  store %"class.std::basic_ostream"* %0, %"class.std::basic_ostream"** %2, align 8
  %5 = load %"class.std::basic_ostream"*, %"class.std::basic_ostream"** %2, align 8
  %6 = bitcast %"class.std::basic_ostream"* %5 to i8*
  %7 = getelementptr inbounds i8, i8* %6, i64 0
  %8 = bitcast i8* %7 to i32**
  %9 = load i32*, i32** %8, align 8
  %10 = getelementptr inbounds i32, i32* %9, i32 1
  %11 = load i32, i32* %10, align 4
  %12 = sext i32 %11 to i64
  %13 = add nsw i64 0, %12
  %14 = bitcast %"class.std::basic_ostream"* %5 to i8*
  %15 = getelementptr inbounds i8, i8* %14, i64 %13
  %16 = bitcast i8* %15 to %"class.std::basic_ios"*
  %17 = call %"class.std::basic_streambuf"* @"?rdbuf@?$basic_ios@DU?$char_traits@D@std@@@std@@QEBAPEAV?$basic_streambuf@DU?$char_traits@D@std@@@2@XZ"(%"class.std::basic_ios"* %16)
  store %"class.std::basic_streambuf"* %17, %"class.std::basic_streambuf"** %3, align 8
  %18 = load %"class.std::basic_streambuf"*, %"class.std::basic_streambuf"** %3, align 8
  %19 = icmp ne %"class.std::basic_streambuf"* %18, null
  br i1 %19, label %20, label %45

20:                                               ; preds = %1
  %21 = call %"class.std::basic_ostream<char, std::char_traits<char>>::sentry"* @"??0sentry@?$basic_ostream@DU?$char_traits@D@std@@@std@@QEAA@AEAV12@@Z"(%"class.std::basic_ostream<char, std::char_traits<char>>::sentry"* %4, %"class.std::basic_ostream"* nonnull align 8 dereferenceable(8) %5)
  %22 = invoke zeroext i1 @"??Bsentry@?$basic_ostream@DU?$char_traits@D@std@@@std@@QEBA_NXZ"(%"class.std::basic_ostream<char, std::char_traits<char>>::sentry"* %4)
          to label %23 unwind label %43

23:                                               ; preds = %20
  br i1 %22, label %24, label %42

24:                                               ; preds = %23
  %25 = load %"class.std::basic_streambuf"*, %"class.std::basic_streambuf"** %3, align 8
  %26 = invoke i32 @"?pubsync@?$basic_streambuf@DU?$char_traits@D@std@@@std@@QEAAHXZ"(%"class.std::basic_streambuf"* %25)
          to label %27 unwind label %43

27:                                               ; preds = %24
  %28 = icmp eq i32 %26, -1
  br i1 %28, label %29, label %42

29:                                               ; preds = %27
  %30 = bitcast %"class.std::basic_ostream"* %5 to i8*
  %31 = getelementptr inbounds i8, i8* %30, i64 0
  %32 = bitcast i8* %31 to i32**
  %33 = load i32*, i32** %32, align 8
  %34 = getelementptr inbounds i32, i32* %33, i32 1
  %35 = load i32, i32* %34, align 4
  %36 = sext i32 %35 to i64
  %37 = add nsw i64 0, %36
  %38 = bitcast %"class.std::basic_ostream"* %5 to i8*
  %39 = getelementptr inbounds i8, i8* %38, i64 %37
  %40 = bitcast i8* %39 to %"class.std::basic_ios"*
  invoke void @"?setstate@?$basic_ios@DU?$char_traits@D@std@@@std@@QEAAXH_N@Z"(%"class.std::basic_ios"* %40, i32 4, i1 zeroext false)
          to label %41 unwind label %43

41:                                               ; preds = %29
  br label %42

42:                                               ; preds = %41, %27, %23
  call void @"??1sentry@?$basic_ostream@DU?$char_traits@D@std@@@std@@QEAA@XZ"(%"class.std::basic_ostream<char, std::char_traits<char>>::sentry"* %4) #3
  br label %45

43:                                               ; preds = %29, %24, %20
  %44 = cleanuppad within none []
  call void @"??1sentry@?$basic_ostream@DU?$char_traits@D@std@@@std@@QEAA@XZ"(%"class.std::basic_ostream<char, std::char_traits<char>>::sentry"* %4) #3 [ "funclet"(token %44) ]
  cleanupret from %44 unwind to caller

45:                                               ; preds = %42, %1
  ret %"class.std::basic_ostream"* %5
}

; Function Attrs: noinline nounwind optnone uwtable
define linkonce_odr dso_local void @"??1_Sentry_base@?$basic_ostream@DU?$char_traits@D@std@@@std@@QEAA@XZ"(%"class.std::basic_ostream<char, std::char_traits<char>>::_Sentry_base"* %0) unnamed_addr #2 comdat align 2 personality i8* bitcast (i32 (...)* @__CxxFrameHandler3 to i8*) {
  %2 = alloca %"class.std::basic_ostream<char, std::char_traits<char>>::_Sentry_base"*, align 8
  %3 = alloca %"class.std::basic_streambuf"*, align 8
  store %"class.std::basic_ostream<char, std::char_traits<char>>::_Sentry_base"* %0, %"class.std::basic_ostream<char, std::char_traits<char>>::_Sentry_base"** %2, align 8
  %4 = load %"class.std::basic_ostream<char, std::char_traits<char>>::_Sentry_base"*, %"class.std::basic_ostream<char, std::char_traits<char>>::_Sentry_base"** %2, align 8
  %5 = getelementptr inbounds %"class.std::basic_ostream<char, std::char_traits<char>>::_Sentry_base", %"class.std::basic_ostream<char, std::char_traits<char>>::_Sentry_base"* %4, i32 0, i32 0
  %6 = load %"class.std::basic_ostream"*, %"class.std::basic_ostream"** %5, align 8
  %7 = bitcast %"class.std::basic_ostream"* %6 to i8*
  %8 = getelementptr inbounds i8, i8* %7, i64 0
  %9 = bitcast i8* %8 to i32**
  %10 = load i32*, i32** %9, align 8
  %11 = getelementptr inbounds i32, i32* %10, i32 1
  %12 = load i32, i32* %11, align 4
  %13 = sext i32 %12 to i64
  %14 = add nsw i64 0, %13
  %15 = bitcast %"class.std::basic_ostream"* %6 to i8*
  %16 = getelementptr inbounds i8, i8* %15, i64 %14
  %17 = bitcast i8* %16 to %"class.std::basic_ios"*
  %18 = invoke %"class.std::basic_streambuf"* @"?rdbuf@?$basic_ios@DU?$char_traits@D@std@@@std@@QEBAPEAV?$basic_streambuf@DU?$char_traits@D@std@@@2@XZ"(%"class.std::basic_ios"* %17)
          to label %19 unwind label %30

19:                                               ; preds = %1
  store %"class.std::basic_streambuf"* %18, %"class.std::basic_streambuf"** %3, align 8
  %20 = load %"class.std::basic_streambuf"*, %"class.std::basic_streambuf"** %3, align 8
  %21 = icmp ne %"class.std::basic_streambuf"* %20, null
  br i1 %21, label %22, label %29

22:                                               ; preds = %19
  %23 = load %"class.std::basic_streambuf"*, %"class.std::basic_streambuf"** %3, align 8
  %24 = bitcast %"class.std::basic_streambuf"* %23 to void (%"class.std::basic_streambuf"*)***
  %25 = load void (%"class.std::basic_streambuf"*)**, void (%"class.std::basic_streambuf"*)*** %24, align 8
  %26 = getelementptr inbounds void (%"class.std::basic_streambuf"*)*, void (%"class.std::basic_streambuf"*)** %25, i64 2
  %27 = load void (%"class.std::basic_streambuf"*)*, void (%"class.std::basic_streambuf"*)** %26, align 8
  invoke void %27(%"class.std::basic_streambuf"* %23)
          to label %28 unwind label %30

28:                                               ; preds = %22
  br label %29

29:                                               ; preds = %28, %19
  ret void

30:                                               ; preds = %22, %1
  %31 = cleanuppad within none []
  call void @__std_terminate() #15 [ "funclet"(token %31) ]
  unreachable
}

; Function Attrs: noinline nounwind optnone uwtable
define linkonce_odr dso_local i32 @"?rdstate@ios_base@std@@QEBAHXZ"(%"class.std::ios_base"* %0) #2 comdat align 2 {
  %2 = alloca %"class.std::ios_base"*, align 8
  store %"class.std::ios_base"* %0, %"class.std::ios_base"** %2, align 8
  %3 = load %"class.std::ios_base"*, %"class.std::ios_base"** %2, align 8
  %4 = getelementptr inbounds %"class.std::ios_base", %"class.std::ios_base"* %3, i32 0, i32 2
  %5 = load i32, i32* %4, align 8
  ret i32 %5
}

; Function Attrs: noinline optnone uwtable
define linkonce_odr dso_local i32 @"?pubsync@?$basic_streambuf@DU?$char_traits@D@std@@@std@@QEAAHXZ"(%"class.std::basic_streambuf"* %0) #1 comdat align 2 {
  %2 = alloca %"class.std::basic_streambuf"*, align 8
  store %"class.std::basic_streambuf"* %0, %"class.std::basic_streambuf"** %2, align 8
  %3 = load %"class.std::basic_streambuf"*, %"class.std::basic_streambuf"** %2, align 8
  %4 = bitcast %"class.std::basic_streambuf"* %3 to i32 (%"class.std::basic_streambuf"*)***
  %5 = load i32 (%"class.std::basic_streambuf"*)**, i32 (%"class.std::basic_streambuf"*)*** %4, align 8
  %6 = getelementptr inbounds i32 (%"class.std::basic_streambuf"*)*, i32 (%"class.std::basic_streambuf"*)** %5, i64 13
  %7 = load i32 (%"class.std::basic_streambuf"*)*, i32 (%"class.std::basic_streambuf"*)** %6, align 8
  %8 = call i32 %7(%"class.std::basic_streambuf"* %3)
  ret i32 %8
}

; Function Attrs: noinline nounwind optnone uwtable
define linkonce_odr dso_local i64 @"?_Pnavail@?$basic_streambuf@DU?$char_traits@D@std@@@std@@IEBA_JXZ"(%"class.std::basic_streambuf"* %0) #2 comdat align 2 {
  %2 = alloca %"class.std::basic_streambuf"*, align 8
  store %"class.std::basic_streambuf"* %0, %"class.std::basic_streambuf"** %2, align 8
  %3 = load %"class.std::basic_streambuf"*, %"class.std::basic_streambuf"** %2, align 8
  %4 = getelementptr inbounds %"class.std::basic_streambuf", %"class.std::basic_streambuf"* %3, i32 0, i32 8
  %5 = load i8**, i8*** %4, align 8
  %6 = load i8*, i8** %5, align 8
  %7 = icmp ne i8* %6, null
  br i1 %7, label %8, label %12

8:                                                ; preds = %1
  %9 = getelementptr inbounds %"class.std::basic_streambuf", %"class.std::basic_streambuf"* %3, i32 0, i32 12
  %10 = load i32*, i32** %9, align 8
  %11 = load i32, i32* %10, align 4
  br label %13

12:                                               ; preds = %1
  br label %13

13:                                               ; preds = %12, %8
  %14 = phi i32 [ %11, %8 ], [ 0, %12 ]
  %15 = sext i32 %14 to i64
  ret i64 %15
}

; Function Attrs: noinline nounwind optnone uwtable
define linkonce_odr dso_local i32 @"?to_int_type@?$_Narrow_char_traits@DH@std@@SAHAEBD@Z"(i8* nonnull align 1 dereferenceable(1) %0) #2 comdat align 2 {
  %2 = alloca i8*, align 8
  store i8* %0, i8** %2, align 8
  %3 = load i8*, i8** %2, align 8
  %4 = load i8, i8* %3, align 1
  %5 = zext i8 %4 to i32
  ret i32 %5
}

; Function Attrs: noinline nounwind optnone uwtable
define linkonce_odr dso_local i8* @"?_Pninc@?$basic_streambuf@DU?$char_traits@D@std@@@std@@IEAAPEADXZ"(%"class.std::basic_streambuf"* %0) #2 comdat align 2 {
  %2 = alloca %"class.std::basic_streambuf"*, align 8
  store %"class.std::basic_streambuf"* %0, %"class.std::basic_streambuf"** %2, align 8
  %3 = load %"class.std::basic_streambuf"*, %"class.std::basic_streambuf"** %2, align 8
  %4 = getelementptr inbounds %"class.std::basic_streambuf", %"class.std::basic_streambuf"* %3, i32 0, i32 12
  %5 = load i32*, i32** %4, align 8
  %6 = load i32, i32* %5, align 4
  %7 = add nsw i32 %6, -1
  store i32 %7, i32* %5, align 4
  %8 = getelementptr inbounds %"class.std::basic_streambuf", %"class.std::basic_streambuf"* %3, i32 0, i32 8
  %9 = load i8**, i8*** %8, align 8
  %10 = load i8*, i8** %9, align 8
  %11 = getelementptr inbounds i8, i8* %10, i32 1
  store i8* %11, i8** %9, align 8
  ret i8* %10
}

; Function Attrs: noinline optnone uwtable
define linkonce_odr dso_local void @"?clear@?$basic_ios@DU?$char_traits@D@std@@@std@@QEAAXH_N@Z"(%"class.std::basic_ios"* %0, i32 %1, i1 zeroext %2) #1 comdat align 2 {
  %4 = alloca i8, align 1
  %5 = alloca i32, align 4
  %6 = alloca %"class.std::basic_ios"*, align 8
  %7 = zext i1 %2 to i8
  store i8 %7, i8* %4, align 1
  store i32 %1, i32* %5, align 4
  store %"class.std::basic_ios"* %0, %"class.std::basic_ios"** %6, align 8
  %8 = load %"class.std::basic_ios"*, %"class.std::basic_ios"** %6, align 8
  %9 = bitcast %"class.std::basic_ios"* %8 to %"class.std::ios_base"*
  %10 = load i8, i8* %4, align 1
  %11 = trunc i8 %10 to i1
  %12 = load i32, i32* %5, align 4
  %13 = getelementptr inbounds %"class.std::basic_ios", %"class.std::basic_ios"* %8, i32 0, i32 1
  %14 = load %"class.std::basic_streambuf"*, %"class.std::basic_streambuf"** %13, align 8
  %15 = icmp ne %"class.std::basic_streambuf"* %14, null
  %16 = zext i1 %15 to i64
  %17 = select i1 %15, i32 0, i32 4
  %18 = or i32 %12, %17
  call void @"?clear@ios_base@std@@QEAAXH_N@Z"(%"class.std::ios_base"* %9, i32 %18, i1 zeroext %11)
  ret void
}

; Function Attrs: noinline optnone uwtable
define linkonce_odr dso_local void @"?clear@ios_base@std@@QEAAXH_N@Z"(%"class.std::ios_base"* %0, i32 %1, i1 zeroext %2) #1 comdat align 2 {
  %4 = alloca i8, align 1
  %5 = alloca i32, align 4
  %6 = alloca %"class.std::ios_base"*, align 8
  %7 = alloca i32, align 4
  %8 = alloca i8*, align 8
  %9 = alloca %"class.std::ios_base::failure", align 8
  %10 = alloca %"class.std::error_code", align 8
  %11 = zext i1 %2 to i8
  store i8 %11, i8* %4, align 1
  store i32 %1, i32* %5, align 4
  store %"class.std::ios_base"* %0, %"class.std::ios_base"** %6, align 8
  %12 = load %"class.std::ios_base"*, %"class.std::ios_base"** %6, align 8
  %13 = load i32, i32* %5, align 4
  %14 = and i32 %13, 23
  store i32 %14, i32* %5, align 4
  %15 = load i32, i32* %5, align 4
  %16 = getelementptr inbounds %"class.std::ios_base", %"class.std::ios_base"* %12, i32 0, i32 2
  store i32 %15, i32* %16, align 8
  %17 = load i32, i32* %5, align 4
  %18 = getelementptr inbounds %"class.std::ios_base", %"class.std::ios_base"* %12, i32 0, i32 3
  %19 = load i32, i32* %18, align 4
  %20 = and i32 %17, %19
  store i32 %20, i32* %7, align 4
  %21 = load i32, i32* %7, align 4
  %22 = icmp ne i32 %21, 0
  br i1 %22, label %23, label %43

23:                                               ; preds = %3
  %24 = load i8, i8* %4, align 1
  %25 = trunc i8 %24 to i1
  br i1 %25, label %26, label %27

26:                                               ; preds = %23
  call void @_CxxThrowException(i8* null, %eh.ThrowInfo* null) #14
  unreachable

27:                                               ; preds = %23
  %28 = load i32, i32* %7, align 4
  %29 = and i32 %28, 4
  %30 = icmp ne i32 %29, 0
  br i1 %30, label %31, label %32

31:                                               ; preds = %27
  store i8* getelementptr inbounds ([21 x i8], [21 x i8]* @"??_C@_0BF@PHHKMMFD@ios_base?3?3badbit?5set?$AA@", i64 0, i64 0), i8** %8, align 8
  br label %39

32:                                               ; preds = %27
  %33 = load i32, i32* %7, align 4
  %34 = and i32 %33, 2
  %35 = icmp ne i32 %34, 0
  br i1 %35, label %36, label %37

36:                                               ; preds = %32
  store i8* getelementptr inbounds ([22 x i8], [22 x i8]* @"??_C@_0BG@FMKFHCIL@ios_base?3?3failbit?5set?$AA@", i64 0, i64 0), i8** %8, align 8
  br label %38

37:                                               ; preds = %32
  store i8* getelementptr inbounds ([21 x i8], [21 x i8]* @"??_C@_0BF@OOHOMBOF@ios_base?3?3eofbit?5set?$AA@", i64 0, i64 0), i8** %8, align 8
  br label %38

38:                                               ; preds = %37, %36
  br label %39

39:                                               ; preds = %38, %31
  call void @"?make_error_code@std@@YA?AVerror_code@1@W4io_errc@1@@Z"(%"class.std::error_code"* sret align 8 %10, i32 1) #3
  %40 = load i8*, i8** %8, align 8
  %41 = call %"class.std::ios_base::failure"* @"??0failure@ios_base@std@@QEAA@PEBDAEBVerror_code@2@@Z"(%"class.std::ios_base::failure"* %9, i8* %40, %"class.std::error_code"* nonnull align 8 dereferenceable(16) %10)
  %42 = bitcast %"class.std::ios_base::failure"* %9 to i8*
  call void @_CxxThrowException(i8* %42, %eh.ThrowInfo* @"_TI5?AVfailure@ios_base@std@@") #14
  unreachable

43:                                               ; preds = %3
  ret void
}

; Function Attrs: noinline nounwind optnone uwtable
define linkonce_odr dso_local void @"?make_error_code@std@@YA?AVerror_code@1@W4io_errc@1@@Z"(%"class.std::error_code"* noalias sret align 8 %0, i32 %1) #2 comdat {
  %3 = alloca i8*, align 8
  %4 = alloca i32, align 4
  %5 = bitcast %"class.std::error_code"* %0 to i8*
  store i8* %5, i8** %3, align 8
  store i32 %1, i32* %4, align 4
  %6 = call nonnull align 8 dereferenceable(16) %"class.std::error_category"* @"?iostream_category@std@@YAAEBVerror_category@1@XZ"() #3
  %7 = load i32, i32* %4, align 4
  %8 = call %"class.std::error_code"* @"??0error_code@std@@QEAA@HAEBVerror_category@1@@Z"(%"class.std::error_code"* %0, i32 %7, %"class.std::error_category"* nonnull align 8 dereferenceable(16) %6) #3
  ret void
}

; Function Attrs: noinline optnone uwtable
define linkonce_odr dso_local %"class.std::ios_base::failure"* @"??0failure@ios_base@std@@QEAA@PEBDAEBVerror_code@2@@Z"(%"class.std::ios_base::failure"* returned %0, i8* %1, %"class.std::error_code"* nonnull align 8 dereferenceable(16) %2) unnamed_addr #1 comdat align 2 {
  %4 = alloca %"class.std::error_code"*, align 8
  %5 = alloca i8*, align 8
  %6 = alloca %"class.std::ios_base::failure"*, align 8
  %7 = alloca %"class.std::error_code", align 8
  store %"class.std::error_code"* %2, %"class.std::error_code"** %4, align 8
  store i8* %1, i8** %5, align 8
  store %"class.std::ios_base::failure"* %0, %"class.std::ios_base::failure"** %6, align 8
  %8 = load %"class.std::ios_base::failure"*, %"class.std::ios_base::failure"** %6, align 8
  %9 = bitcast %"class.std::ios_base::failure"* %8 to %"class.std::system_error"*
  %10 = load i8*, i8** %5, align 8
  %11 = load %"class.std::error_code"*, %"class.std::error_code"** %4, align 8
  %12 = bitcast %"class.std::error_code"* %7 to i8*
  %13 = bitcast %"class.std::error_code"* %11 to i8*
  call void @llvm.memcpy.p0i8.p0i8.i64(i8* align 8 %12, i8* align 8 %13, i64 16, i1 false)
  %14 = call %"class.std::system_error"* @"??0system_error@std@@QEAA@Verror_code@1@PEBD@Z"(%"class.std::system_error"* %9, %"class.std::error_code"* %7, i8* %10)
  %15 = bitcast %"class.std::ios_base::failure"* %8 to i32 (...)***
  store i32 (...)** bitcast (i8** @"??_7failure@ios_base@std@@6B@" to i32 (...)**), i32 (...)*** %15, align 8
  ret %"class.std::ios_base::failure"* %8
}

; Function Attrs: noinline nounwind optnone uwtable
define linkonce_odr dso_local %"class.std::ios_base::failure"* @"??0failure@ios_base@std@@QEAA@AEBV012@@Z"(%"class.std::ios_base::failure"* returned %0, %"class.std::ios_base::failure"* nonnull align 8 dereferenceable(40) %1) unnamed_addr #2 comdat align 2 {
  %3 = alloca %"class.std::ios_base::failure"*, align 8
  %4 = alloca %"class.std::ios_base::failure"*, align 8
  store %"class.std::ios_base::failure"* %1, %"class.std::ios_base::failure"** %3, align 8
  store %"class.std::ios_base::failure"* %0, %"class.std::ios_base::failure"** %4, align 8
  %5 = load %"class.std::ios_base::failure"*, %"class.std::ios_base::failure"** %4, align 8
  %6 = bitcast %"class.std::ios_base::failure"* %5 to %"class.std::system_error"*
  %7 = load %"class.std::ios_base::failure"*, %"class.std::ios_base::failure"** %3, align 8
  %8 = bitcast %"class.std::ios_base::failure"* %7 to %"class.std::system_error"*
  %9 = call %"class.std::system_error"* @"??0system_error@std@@QEAA@AEBV01@@Z"(%"class.std::system_error"* %6, %"class.std::system_error"* nonnull align 8 dereferenceable(40) %8) #3
  %10 = bitcast %"class.std::ios_base::failure"* %5 to i32 (...)***
  store i32 (...)** bitcast (i8** @"??_7failure@ios_base@std@@6B@" to i32 (...)**), i32 (...)*** %10, align 8
  ret %"class.std::ios_base::failure"* %5
}

; Function Attrs: noinline nounwind optnone uwtable
define linkonce_odr dso_local %"class.std::system_error"* @"??0system_error@std@@QEAA@AEBV01@@Z"(%"class.std::system_error"* returned %0, %"class.std::system_error"* nonnull align 8 dereferenceable(40) %1) unnamed_addr #2 comdat align 2 {
  %3 = alloca %"class.std::system_error"*, align 8
  %4 = alloca %"class.std::system_error"*, align 8
  store %"class.std::system_error"* %1, %"class.std::system_error"** %3, align 8
  store %"class.std::system_error"* %0, %"class.std::system_error"** %4, align 8
  %5 = load %"class.std::system_error"*, %"class.std::system_error"** %4, align 8
  %6 = bitcast %"class.std::system_error"* %5 to %"class.std::_System_error"*
  %7 = load %"class.std::system_error"*, %"class.std::system_error"** %3, align 8
  %8 = bitcast %"class.std::system_error"* %7 to %"class.std::_System_error"*
  %9 = call %"class.std::_System_error"* @"??0_System_error@std@@QEAA@AEBV01@@Z"(%"class.std::_System_error"* %6, %"class.std::_System_error"* nonnull align 8 dereferenceable(40) %8) #3
  %10 = bitcast %"class.std::system_error"* %5 to i32 (...)***
  store i32 (...)** bitcast (i8** @"??_7system_error@std@@6B@" to i32 (...)**), i32 (...)*** %10, align 8
  ret %"class.std::system_error"* %5
}

; Function Attrs: noinline nounwind optnone uwtable
define linkonce_odr dso_local %"class.std::_System_error"* @"??0_System_error@std@@QEAA@AEBV01@@Z"(%"class.std::_System_error"* returned %0, %"class.std::_System_error"* nonnull align 8 dereferenceable(40) %1) unnamed_addr #2 comdat align 2 {
  %3 = alloca %"class.std::_System_error"*, align 8
  %4 = alloca %"class.std::_System_error"*, align 8
  store %"class.std::_System_error"* %1, %"class.std::_System_error"** %3, align 8
  store %"class.std::_System_error"* %0, %"class.std::_System_error"** %4, align 8
  %5 = load %"class.std::_System_error"*, %"class.std::_System_error"** %4, align 8
  %6 = bitcast %"class.std::_System_error"* %5 to %"class.std::runtime_error"*
  %7 = load %"class.std::_System_error"*, %"class.std::_System_error"** %3, align 8
  %8 = bitcast %"class.std::_System_error"* %7 to %"class.std::runtime_error"*
  %9 = call %"class.std::runtime_error"* @"??0runtime_error@std@@QEAA@AEBV01@@Z"(%"class.std::runtime_error"* %6, %"class.std::runtime_error"* nonnull align 8 dereferenceable(24) %8) #3
  %10 = bitcast %"class.std::_System_error"* %5 to i32 (...)***
  store i32 (...)** bitcast (i8** @"??_7_System_error@std@@6B@" to i32 (...)**), i32 (...)*** %10, align 8
  %11 = getelementptr inbounds %"class.std::_System_error", %"class.std::_System_error"* %5, i32 0, i32 1
  %12 = load %"class.std::_System_error"*, %"class.std::_System_error"** %3, align 8
  %13 = getelementptr inbounds %"class.std::_System_error", %"class.std::_System_error"* %12, i32 0, i32 1
  %14 = bitcast %"class.std::error_code"* %11 to i8*
  %15 = bitcast %"class.std::error_code"* %13 to i8*
  call void @llvm.memcpy.p0i8.p0i8.i64(i8* align 8 %14, i8* align 8 %15, i64 16, i1 false)
  ret %"class.std::_System_error"* %5
}

; Function Attrs: noinline nounwind optnone uwtable
define linkonce_odr dso_local %"class.std::runtime_error"* @"??0runtime_error@std@@QEAA@AEBV01@@Z"(%"class.std::runtime_error"* returned %0, %"class.std::runtime_error"* nonnull align 8 dereferenceable(24) %1) unnamed_addr #2 comdat align 2 {
  %3 = alloca %"class.std::runtime_error"*, align 8
  %4 = alloca %"class.std::runtime_error"*, align 8
  store %"class.std::runtime_error"* %1, %"class.std::runtime_error"** %3, align 8
  store %"class.std::runtime_error"* %0, %"class.std::runtime_error"** %4, align 8
  %5 = load %"class.std::runtime_error"*, %"class.std::runtime_error"** %4, align 8
  %6 = bitcast %"class.std::runtime_error"* %5 to %"class.std::exception"*
  %7 = load %"class.std::runtime_error"*, %"class.std::runtime_error"** %3, align 8
  %8 = bitcast %"class.std::runtime_error"* %7 to %"class.std::exception"*
  %9 = call %"class.std::exception"* @"??0exception@std@@QEAA@AEBV01@@Z"(%"class.std::exception"* %6, %"class.std::exception"* nonnull align 8 dereferenceable(24) %8) #3
  %10 = bitcast %"class.std::runtime_error"* %5 to i32 (...)***
  store i32 (...)** bitcast (i8** @"??_7runtime_error@std@@6B@" to i32 (...)**), i32 (...)*** %10, align 8
  ret %"class.std::runtime_error"* %5
}

; Function Attrs: noinline nounwind optnone uwtable
define linkonce_odr dso_local void @"??1failure@ios_base@std@@UEAA@XZ"(%"class.std::ios_base::failure"* %0) unnamed_addr #2 comdat align 2 {
  %2 = alloca %"class.std::ios_base::failure"*, align 8
  store %"class.std::ios_base::failure"* %0, %"class.std::ios_base::failure"** %2, align 8
  %3 = load %"class.std::ios_base::failure"*, %"class.std::ios_base::failure"** %2, align 8
  %4 = bitcast %"class.std::ios_base::failure"* %3 to %"class.std::system_error"*
  call void @"??1system_error@std@@UEAA@XZ"(%"class.std::system_error"* %4) #3
  ret void
}

; Function Attrs: noinline nounwind optnone uwtable
define linkonce_odr dso_local nonnull align 8 dereferenceable(16) %"class.std::error_category"* @"?iostream_category@std@@YAAEBVerror_category@1@XZ"() #2 comdat {
  %1 = call nonnull align 8 dereferenceable(16) %"class.std::_Iostream_error_category2"* @"??$_Immortalize_memcpy_image@V_Iostream_error_category2@std@@@std@@YAAEBV_Iostream_error_category2@0@XZ"() #3
  %2 = bitcast %"class.std::_Iostream_error_category2"* %1 to %"class.std::error_category"*
  ret %"class.std::error_category"* %2
}

; Function Attrs: noinline nounwind optnone uwtable
define linkonce_odr dso_local %"class.std::error_code"* @"??0error_code@std@@QEAA@HAEBVerror_category@1@@Z"(%"class.std::error_code"* returned %0, i32 %1, %"class.std::error_category"* nonnull align 8 dereferenceable(16) %2) unnamed_addr #2 comdat align 2 {
  %4 = alloca %"class.std::error_category"*, align 8
  %5 = alloca i32, align 4
  %6 = alloca %"class.std::error_code"*, align 8
  store %"class.std::error_category"* %2, %"class.std::error_category"** %4, align 8
  store i32 %1, i32* %5, align 4
  store %"class.std::error_code"* %0, %"class.std::error_code"** %6, align 8
  %7 = load %"class.std::error_code"*, %"class.std::error_code"** %6, align 8
  %8 = getelementptr inbounds %"class.std::error_code", %"class.std::error_code"* %7, i32 0, i32 0
  %9 = load i32, i32* %5, align 4
  store i32 %9, i32* %8, align 8
  %10 = getelementptr inbounds %"class.std::error_code", %"class.std::error_code"* %7, i32 0, i32 1
  %11 = load %"class.std::error_category"*, %"class.std::error_category"** %4, align 8
  store %"class.std::error_category"* %11, %"class.std::error_category"** %10, align 8
  ret %"class.std::error_code"* %7
}

; Function Attrs: noinline nounwind optnone uwtable
define linkonce_odr dso_local nonnull align 8 dereferenceable(16) %"class.std::_Iostream_error_category2"* @"??$_Immortalize_memcpy_image@V_Iostream_error_category2@std@@@std@@YAAEBV_Iostream_error_category2@0@XZ"() #2 comdat {
  %1 = load atomic i32, i32* @"?$TSS0@?1???$_Immortalize_memcpy_image@V_Iostream_error_category2@std@@@std@@YAAEBV_Iostream_error_category2@0@XZ@4HA" unordered, align 4
  %2 = load i32, i32* @_Init_thread_epoch, align 4
  %3 = icmp sgt i32 %1, %2
  br i1 %3, label %4, label %9, !prof !9

4:                                                ; preds = %0
  call void @_Init_thread_header(i32* @"?$TSS0@?1???$_Immortalize_memcpy_image@V_Iostream_error_category2@std@@@std@@YAAEBV_Iostream_error_category2@0@XZ@4HA") #3
  %5 = load atomic i32, i32* @"?$TSS0@?1???$_Immortalize_memcpy_image@V_Iostream_error_category2@std@@@std@@YAAEBV_Iostream_error_category2@0@XZ@4HA" unordered, align 4
  %6 = icmp eq i32 %5, -1
  br i1 %6, label %7, label %9

7:                                                ; preds = %4
  %8 = call i32 @atexit(void ()* @"??__F_Static@?1???$_Immortalize_memcpy_image@V_Iostream_error_category2@std@@@std@@YAAEBV_Iostream_error_category2@1@XZ@YAXXZ") #3
  call void @_Init_thread_footer(i32* @"?$TSS0@?1???$_Immortalize_memcpy_image@V_Iostream_error_category2@std@@@std@@YAAEBV_Iostream_error_category2@0@XZ@4HA") #3
  br label %9

9:                                                ; preds = %7, %4, %0
  ret %"class.std::_Iostream_error_category2"* bitcast ({ i8**, i64 }* @"?_Static@?1???$_Immortalize_memcpy_image@V_Iostream_error_category2@std@@@std@@YAAEBV_Iostream_error_category2@1@XZ@4V21@A" to %"class.std::_Iostream_error_category2"*)
}

; Function Attrs: nounwind
declare dso_local void @_Init_thread_header(i32*) #3

; Function Attrs: noinline nounwind optnone uwtable
define linkonce_odr dso_local void @"??1_Iostream_error_category2@std@@UEAA@XZ"(%"class.std::_Iostream_error_category2"* %0) unnamed_addr #2 comdat align 2 {
  %2 = alloca %"class.std::_Iostream_error_category2"*, align 8
  store %"class.std::_Iostream_error_category2"* %0, %"class.std::_Iostream_error_category2"** %2, align 8
  %3 = load %"class.std::_Iostream_error_category2"*, %"class.std::_Iostream_error_category2"** %2, align 8
  %4 = bitcast %"class.std::_Iostream_error_category2"* %3 to %"class.std::error_category"*
  call void @"??1error_category@std@@UEAA@XZ"(%"class.std::error_category"* %4) #3
  ret void
}

; Function Attrs: noinline uwtable
define internal void @"??__F_Static@?1???$_Immortalize_memcpy_image@V_Iostream_error_category2@std@@@std@@YAAEBV_Iostream_error_category2@1@XZ@YAXXZ"() #0 {
  call void @"??1_Iostream_error_category2@std@@UEAA@XZ"(%"class.std::_Iostream_error_category2"* bitcast ({ i8**, i64 }* @"?_Static@?1???$_Immortalize_memcpy_image@V_Iostream_error_category2@std@@@std@@YAAEBV_Iostream_error_category2@1@XZ@4V21@A" to %"class.std::_Iostream_error_category2"*))
  ret void
}

; Function Attrs: nounwind
declare dso_local void @_Init_thread_footer(i32*) #3

; Function Attrs: noinline nounwind optnone uwtable
define linkonce_odr dso_local i8* @"??_G_Iostream_error_category2@std@@UEAAPEAXI@Z"(%"class.std::_Iostream_error_category2"* %0, i32 %1) unnamed_addr #2 comdat align 2 {
  %3 = alloca i8*, align 8
  %4 = alloca i32, align 4
  %5 = alloca %"class.std::_Iostream_error_category2"*, align 8
  store i32 %1, i32* %4, align 4
  store %"class.std::_Iostream_error_category2"* %0, %"class.std::_Iostream_error_category2"** %5, align 8
  %6 = load %"class.std::_Iostream_error_category2"*, %"class.std::_Iostream_error_category2"** %5, align 8
  %7 = bitcast %"class.std::_Iostream_error_category2"* %6 to i8*
